///////////////////////////////////////////////////////////////////////////////
//                                                                            /
// IAR C/C++ Compiler V8.10.1.10194/W32 for 8051        23/Dec/2020  19:08:58 /
// Copyright 2004-2011 IAR Systems AB.                                        /
//                                                                            /
//    Core               =  plain                                             /
//    Code model         =  banked                                            /
//    Data model         =  large                                             /
//    Calling convention =  xdata reentrant                                   /
//    Constant location  =  data_rom                                          /
//    Dptr setup         =  1,16                                              /
//    Source file        =  D:\ZStack-CC2530-2.5.1a\Projects\zstack\Samples\D /
//                          esign\Source\kitchen.c                            /
//    Command line       =  -f D:\ZStack-CC2530-2.5.1a\Projects\zstack\Sample /
//                          s\Design\CC2530DB\..\..\..\Tools\CC2530DB\f8wEnde /
//                          v.cfg (-DCPU32MHZ -DROOT=__near_func              /
//                          -DMAC_CFG_TX_DATA_MAX=3 -DMAC_CFG_TX_MAX=6        /
//                          -DMAC_CFG_RX_MAX=3) -f D:\ZStack-CC2530-2.5.1a\Pr /
//                          ojects\zstack\Samples\Design\CC2530DB\..\..\..\To /
//                          ols\CC2530DB\f8wConfig.cfg (-DZIGBEEPRO           /
//                          -DSECURE=0 -DZG_SECURE_DYNAMIC=0 -DREFLECTOR      /
//                          -DDEFAULT_CHANLIST=0x00020000                     /
//                          -DZDAPP_CONFIG_PAN_ID=0x19 -DNWK_START_DELAY=100  /
//                          -DEXTENDED_JOINING_RANDOM_MASK=0x007F             /
//                          -DBEACON_REQUEST_DELAY=100                        /
//                          -DBEACON_REQ_DELAY_MASK=0x00FF                    /
//                          -DLINK_STATUS_JITTER_MASK=0x007F                  /
//                          -DROUTE_EXPIRY_TIME=30 -DAPSC_ACK_WAIT_DURATION_P /
//                          OLLED=3000 -DNWK_INDIRECT_MSG_TIMEOUT=7           /
//                          -DMAX_RREQ_ENTRIES=8 -DAPSC_MAX_FRAME_RETRIES=3   /
//                          -DNWK_MAX_DATA_RETRIES=2                          /
//                          -DMAX_POLL_FAILURE_RETRIES=2 -DMAX_BCAST=9        /
//                          -DAPS_MAX_GROUPS=16 -DMAX_RTG_ENTRIES=40          /
//                          -DNWK_MAX_BINDING_ENTRIES=4                       /
//                          -DMAX_BINDING_CLUSTER_IDS=4                       /
//                          "-DDEFAULT_KEY={0x01, 0x03, 0x05, 0x07, 0x09,     /
//                          0x0B, 0x0D, 0x0F, 0x00, 0x02, 0x04, 0x06, 0x08,   /
//                          0x0A, 0x0C, 0x0D}" -DMAC_MAX_FRAME_SIZE=116       /
//                          -DZDNWKMGR_MIN_TRANSMISSIONS=20 "-DCONST=const    /
//                          __code" -DGENERIC=__generic                       /
//                          -DRFD_RCVC_ALWAYS_ON=FALSE -DPOLL_RATE=1000       /
//                          -DQUEUED_POLL_RATE=100 -DRESPONSE_POLL_RATE=100)  /
//                          -DREJOIN_POLL_RATE=440 D:\ZStack-CC2530-2.5.1a\Pr /
//                          ojects\zstack\Samples\Design\Source\kitchen.c -D  /
//                          ZTOOL_P1 -D xMT_TASK -D xMT_SYS_FUNC -D           /
//                          xMT_ZDO_FUNC -D xLCD_SUPPORTED=DEBUG -D           /
//                          xPOWER_SAVING -lC D:\ZStack-CC2530-2.5.1a\Project /
//                          s\zstack\Samples\Design\CC2530DB\Kitchen\List\    /
//                          -lA D:\ZStack-CC2530-2.5.1a\Projects\zstack\Sampl /
//                          es\Design\CC2530DB\Kitchen\List\ --diag_suppress  /
//                          Pe001,Pa010 -o D:\ZStack-CC2530-2.5.1a\Projects\z /
//                          stack\Samples\Design\CC2530DB\Kitchen\Obj\ -e     /
//                          --no_code_motion --debug --core=plain             /
//                          --dptr=16,1 --data_model=large                    /
//                          --code_model=banked --calling_convention=xdata_re /
//                          entrant --place_constants=data_rom                /
//                          --nr_virtual_regs 16 -I                           /
//                          D:\ZStack-CC2530-2.5.1a\Projects\zstack\Samples\D /
//                          esign\CC2530DB\ -I D:\ZStack-CC2530-2.5.1a\Projec /
//                          ts\zstack\Samples\Design\CC2530DB\..\Source\ -I   /
//                          D:\ZStack-CC2530-2.5.1a\Projects\zstack\Samples\D /
//                          esign\CC2530DB\..\Source\IO\ -I                   /
//                          D:\ZStack-CC2530-2.5.1a\Projects\zstack\Samples\D /
//                          esign\CC2530DB\..\..\..\ZMain\TI2530DB\ -I        /
//                          D:\ZStack-CC2530-2.5.1a\Projects\zstack\Samples\D /
//                          esign\CC2530DB\..\..\..\..\..\Components\hal\incl /
//                          ude\ -I D:\ZStack-CC2530-2.5.1a\Projects\zstack\S /
//                          amples\Design\CC2530DB\..\..\..\..\..\Components\ /
//                          hal\target\CC2530EB\ -I                           /
//                          D:\ZStack-CC2530-2.5.1a\Projects\zstack\Samples\D /
//                          esign\CC2530DB\..\..\..\..\..\Components\mac\incl /
//                          ude\ -I D:\ZStack-CC2530-2.5.1a\Projects\zstack\S /
//                          amples\Design\CC2530DB\..\..\..\..\..\Components\ /
//                          mac\high_level\ -I D:\ZStack-CC2530-2.5.1a\Projec /
//                          ts\zstack\Samples\Design\CC2530DB\..\..\..\..\..\ /
//                          Components\mac\low_level\srf04\ -I                /
//                          D:\ZStack-CC2530-2.5.1a\Projects\zstack\Samples\D /
//                          esign\CC2530DB\..\..\..\..\..\Components\mac\low_ /
//                          level\srf04\single_chip\ -I                       /
//                          D:\ZStack-CC2530-2.5.1a\Projects\zstack\Samples\D /
//                          esign\CC2530DB\..\..\..\..\..\Components\mt\ -I   /
//                          D:\ZStack-CC2530-2.5.1a\Projects\zstack\Samples\D /
//                          esign\CC2530DB\..\..\..\..\..\Components\osal\inc /
//                          lude\ -I D:\ZStack-CC2530-2.5.1a\Projects\zstack\ /
//                          Samples\Design\CC2530DB\..\..\..\..\..\Components /
//                          \services\saddr\ -I D:\ZStack-CC2530-2.5.1a\Proje /
//                          cts\zstack\Samples\Design\CC2530DB\..\..\..\..\.. /
//                          \Components\services\sdata\ -I                    /
//                          D:\ZStack-CC2530-2.5.1a\Projects\zstack\Samples\D /
//                          esign\CC2530DB\..\..\..\..\..\Components\stack\af /
//                          \ -I D:\ZStack-CC2530-2.5.1a\Projects\zstack\Samp /
//                          les\Design\CC2530DB\..\..\..\..\..\Components\sta /
//                          ck\nwk\ -I D:\ZStack-CC2530-2.5.1a\Projects\zstac /
//                          k\Samples\Design\CC2530DB\..\..\..\..\..\Componen /
//                          ts\stack\sapi\ -I D:\ZStack-CC2530-2.5.1a\Project /
//                          s\zstack\Samples\Design\CC2530DB\..\..\..\..\..\C /
//                          omponents\stack\sec\ -I                           /
//                          D:\ZStack-CC2530-2.5.1a\Projects\zstack\Samples\D /
//                          esign\CC2530DB\..\..\..\..\..\Components\stack\sy /
//                          s\ -I D:\ZStack-CC2530-2.5.1a\Projects\zstack\Sam /
//                          ples\Design\CC2530DB\..\..\..\..\..\Components\st /
//                          ack\zdo\ -I D:\ZStack-CC2530-2.5.1a\Projects\zsta /
//                          ck\Samples\Design\CC2530DB\..\..\..\..\..\Compone /
//                          nts\zmac\ -I D:\ZStack-CC2530-2.5.1a\Projects\zst /
//                          ack\Samples\Design\CC2530DB\..\..\..\..\..\Compon /
//                          ents\zmac\f8w\ -Ohz --require_prototypes          /
//    List file          =  D:\ZStack-CC2530-2.5.1a\Projects\zstack\Samples\D /
//                          esign\CC2530DB\Kitchen\List\kitchen.s51           /
//                                                                            /
//                                                                            /
///////////////////////////////////////////////////////////////////////////////

        NAME kitchen

        RTMODEL "__SystemLibrary", "CLib"
        RTMODEL "__calling_convention", "xdata_reentrant"
        RTMODEL "__code_model", "banked"
        RTMODEL "__core", "plain"
        RTMODEL "__data_model", "large"
        RTMODEL "__dptr_size", "16"
        RTMODEL "__extended_stack", "disabled"
        RTMODEL "__location_for_constants", "data"
        RTMODEL "__number_of_dptrs", "1"
        RTMODEL "__rt_version", "1"

        RSEG DOVERLAY:DATA:NOROOT(0)
        RSEG IOVERLAY:IDATA:NOROOT(0)
        RSEG ISTACK:IDATA:NOROOT(0)
        RSEG PSTACK:XDATA:NOROOT(0)
        RSEG XSTACK:XDATA:NOROOT(0)

        EXTERN ?ALLOC_XSTACK8
        EXTERN ?BANKED_ENTER_XDATA
        EXTERN ?BANKED_LEAVE_XDATA
        EXTERN ?BDISPATCH
        EXTERN ?BRET
        EXTERN ?DEALLOC_XSTACK8
        EXTERN ?PUSH_XSTACK8_X_TWO
        EXTERN ?PUSH_XSTACK_I_ONE
        EXTERN ?PUSH_XSTACK_I_TWO
        EXTERN ?V0
        EXTERN ?XSTACK_DISP0_8
        EXTERN __INIT_XDATA_I
        EXTERN __INIT_XDATA_Z

        PUBLIC ??zb_AllowBindConfirm?relay
        FUNCTION ??zb_AllowBindConfirm?relay,0203H
        PUBLIC ??zb_BindConfirm?relay
        FUNCTION ??zb_BindConfirm?relay,0203H
        PUBLIC ??zb_FindDeviceConfirm?relay
        FUNCTION ??zb_FindDeviceConfirm?relay,0203H
        PUBLIC ??zb_HandleKeys?relay
        FUNCTION ??zb_HandleKeys?relay,0203H
        PUBLIC ??zb_HandleOsalEvent?relay
        FUNCTION ??zb_HandleOsalEvent?relay,0203H
        PUBLIC ??zb_ReceiveDataIndication?relay
        FUNCTION ??zb_ReceiveDataIndication?relay,0203H
        PUBLIC ??zb_SendDataConfirm?relay
        FUNCTION ??zb_SendDataConfirm?relay,0203H
        PUBLIC ??zb_StartConfirm?relay
        FUNCTION ??zb_StartConfirm?relay,0203H
        PUBLIC AUTO
        PUBLIC DEVICENAME
        PUBLIC FUN
        PUBLIC ID
        PUBLIC MQ2
        PUBLIC SensorDeviceInputCommandList
        PUBLIC SensorDeviceOutputCommandList
        PUBLIC zb_AllowBindConfirm
        FUNCTION zb_AllowBindConfirm,0203H
        ARGFRAME XSTACK, 0, STACK
        PUBLIC zb_BindConfirm
        FUNCTION zb_BindConfirm,0203H
        ARGFRAME XSTACK, 0, STACK
        PUBLIC zb_FindDeviceConfirm
        FUNCTION zb_FindDeviceConfirm,0203H
        ARGFRAME XSTACK, 0, STACK
        PUBLIC zb_HandleKeys
        FUNCTION zb_HandleKeys,0203H
        ARGFRAME XSTACK, 0, STACK
        PUBLIC zb_HandleOsalEvent
        FUNCTION zb_HandleOsalEvent,021203H
        ARGFRAME XSTACK, 0, STACK
        LOCFRAME XSTACK, 74, STACK
        PUBLIC zb_ReceiveDataIndication
        FUNCTION zb_ReceiveDataIndication,021203H
        ARGFRAME XSTACK, 4, STACK
        LOCFRAME ISTACK, 2, STACK
        PUBLIC zb_SendDataConfirm
        FUNCTION zb_SendDataConfirm,0203H
        ARGFRAME XSTACK, 0, STACK
        PUBLIC zb_SimpleDesc
        PUBLIC zb_StartConfirm
        FUNCTION zb_StartConfirm,021203H
        ARGFRAME XSTACK, 0, STACK
        LOCFRAME XSTACK, 15, STACK
        
        CFI Names cfiNames0
        CFI StackFrame CFA_SP SP IDATA
        CFI StackFrame CFA_PSP16 PSP16 XDATA
        CFI StackFrame CFA_XSP16 XSP16 XDATA
        CFI StaticOverlayFrame CFA_IOVERLAY IOVERLAY
        CFI StaticOverlayFrame CFA_DOVERLAY DOVERLAY
        CFI Resource `PSW.CY`:1, `B.BR0`:1, `B.BR1`:1, `B.BR2`:1, `B.BR3`:1
        CFI Resource `B.BR4`:1, `B.BR5`:1, `B.BR6`:1, `B.BR7`:1, `VB.BR8`:1
        CFI Resource `VB.BR9`:1, `VB.BR10`:1, `VB.BR11`:1, `VB.BR12`:1
        CFI Resource `VB.BR13`:1, `VB.BR14`:1, `VB.BR15`:1, VB:8, B:8, A:8
        CFI Resource PSW:8, DPL0:8, DPH0:8, R0:8, R1:8, R2:8, R3:8, R4:8, R5:8
        CFI Resource R6:8, R7:8, V0:8, V1:8, V2:8, V3:8, V4:8, V5:8, V6:8, V7:8
        CFI Resource V8:8, V9:8, V10:8, V11:8, V12:8, V13:8, V14:8, V15:8, SP:8
        CFI Resource PSPH:8, PSPL:8, PSP16:16, XSPH:8, XSPL:8, XSP16:16
        CFI VirtualResource ?RET:24
        CFI Resource ?BRET_EXT:8
        CFI VirtualResource ?RET_HIGH:8, ?RET_LOW:8
        CFI ResourceParts PSP16 PSPH, PSPL
        CFI ResourceParts XSP16 XSPH, XSPL
        CFI ResourceParts ?RET ?BRET_EXT, ?RET_HIGH, ?RET_LOW
        CFI EndNames cfiNames0
        
        CFI Common cfiCommon0 Using cfiNames0
        CFI CodeAlign 1
        CFI DataAlign -1
        CFI ReturnAddress ?RET CODE
        CFI CFA_DOVERLAY Used
        CFI CFA_IOVERLAY Used
        CFI CFA_SP SP+-3
        CFI CFA_PSP16 PSP16+0
        CFI CFA_XSP16 XSP16+0
        CFI `PSW.CY` SameValue
        CFI `B.BR0` SameValue
        CFI `B.BR1` SameValue
        CFI `B.BR2` SameValue
        CFI `B.BR3` SameValue
        CFI `B.BR4` SameValue
        CFI `B.BR5` SameValue
        CFI `B.BR6` SameValue
        CFI `B.BR7` SameValue
        CFI `VB.BR8` SameValue
        CFI `VB.BR9` SameValue
        CFI `VB.BR10` SameValue
        CFI `VB.BR11` SameValue
        CFI `VB.BR12` SameValue
        CFI `VB.BR13` SameValue
        CFI `VB.BR14` SameValue
        CFI `VB.BR15` SameValue
        CFI VB SameValue
        CFI B Undefined
        CFI A Undefined
        CFI PSW SameValue
        CFI DPL0 SameValue
        CFI DPH0 SameValue
        CFI R0 Undefined
        CFI R1 Undefined
        CFI R2 Undefined
        CFI R3 Undefined
        CFI R4 Undefined
        CFI R5 Undefined
        CFI R6 SameValue
        CFI R7 SameValue
        CFI V0 SameValue
        CFI V1 SameValue
        CFI V2 SameValue
        CFI V3 SameValue
        CFI V4 SameValue
        CFI V5 SameValue
        CFI V6 SameValue
        CFI V7 SameValue
        CFI V8 SameValue
        CFI V9 SameValue
        CFI V10 SameValue
        CFI V11 SameValue
        CFI V12 SameValue
        CFI V13 SameValue
        CFI V14 SameValue
        CFI V15 SameValue
        CFI PSPH Undefined
        CFI PSPL Undefined
        CFI XSPH Undefined
        CFI XSPL Undefined
        CFI ?RET Concat
        CFI ?BRET_EXT Frame(CFA_SP, 3)
        CFI ?RET_HIGH Frame(CFA_SP, 2)
        CFI ?RET_LOW Frame(CFA_SP, 1)
        CFI EndCommon cfiCommon0
        
ReadGasData         SYMBOL "ReadGasData"
warming             SYMBOL "warming"
no_warm             SYMBOL "no_warm"
STATE               SYMBOL "STATE"
sprintf             SYMBOL "sprintf"
osal_strlen         SYMBOL "osal_strlen"
zb_SendDataRequest  SYMBOL "zb_SendDataRequest"
STEER_INIT          SYMBOL "STEER_INIT"
HalLedSet           SYMBOL "HalLedSet"
osal_start_reload_timer SYMBOL "osal_start_reload_timer"
open                SYMBOL "open"
close               SYMBOL "close"
??HalLedSet?relay   SYMBOL "?relay", HalLedSet
??ReadGasData?relay SYMBOL "?relay", ReadGasData
??STATE?relay       SYMBOL "?relay", STATE
??STEER_INIT?relay  SYMBOL "?relay", STEER_INIT
??close?relay       SYMBOL "?relay", close
??no_warm?relay     SYMBOL "?relay", no_warm
??open?relay        SYMBOL "?relay", open
??osal_start_reload_timer?relay SYMBOL "?relay", osal_start_reload_timer
??osal_strlen?relay SYMBOL "?relay", osal_strlen
??sprintf?relay     SYMBOL "?relay", sprintf
??warming?relay     SYMBOL "?relay", warming
??zb_SendDataRequest?relay SYMBOL "?relay", zb_SendDataRequest
zb_AllowBindConfirm SYMBOL "zb_AllowBindConfirm"
??zb_AllowBindConfirm?relay SYMBOL "?relay", zb_AllowBindConfirm
zb_BindConfirm      SYMBOL "zb_BindConfirm"
??zb_BindConfirm?relay SYMBOL "?relay", zb_BindConfirm
zb_FindDeviceConfirm SYMBOL "zb_FindDeviceConfirm"
??zb_FindDeviceConfirm?relay SYMBOL "?relay", zb_FindDeviceConfirm
zb_HandleKeys       SYMBOL "zb_HandleKeys"
??zb_HandleKeys?relay SYMBOL "?relay", zb_HandleKeys
zb_HandleOsalEvent  SYMBOL "zb_HandleOsalEvent"
??zb_HandleOsalEvent?relay SYMBOL "?relay", zb_HandleOsalEvent
zb_ReceiveDataIndication SYMBOL "zb_ReceiveDataIndication"
??zb_ReceiveDataIndication?relay SYMBOL "?relay", zb_ReceiveDataIndication
zb_SendDataConfirm  SYMBOL "zb_SendDataConfirm"
??zb_SendDataConfirm?relay SYMBOL "?relay", zb_SendDataConfirm
zb_StartConfirm     SYMBOL "zb_StartConfirm"
??zb_StartConfirm?relay SYMBOL "?relay", zb_StartConfirm

        EXTERN ReadGasData
        FUNCTION ReadGasData,0202H
        ARGFRAME ISTACK, 0, STACK
        ARGFRAME PSTACK, 0, STACK
        ARGFRAME XSTACK, 60, STACK
        ARGFRAME IOVERLAY, 0, STATIC
        ARGFRAME DOVERLAY, 0, STATIC
        EXTERN warming
        FUNCTION warming,0202H
        ARGFRAME ISTACK, 0, STACK
        ARGFRAME PSTACK, 0, STACK
        ARGFRAME XSTACK, 60, STACK
        ARGFRAME IOVERLAY, 0, STATIC
        ARGFRAME DOVERLAY, 0, STATIC
        EXTERN no_warm
        FUNCTION no_warm,0202H
        ARGFRAME ISTACK, 0, STACK
        ARGFRAME PSTACK, 0, STACK
        ARGFRAME XSTACK, 60, STACK
        ARGFRAME IOVERLAY, 0, STATIC
        ARGFRAME DOVERLAY, 0, STATIC
        EXTERN STATE
        FUNCTION STATE,0202H
        ARGFRAME ISTACK, 0, STACK
        ARGFRAME PSTACK, 0, STACK
        ARGFRAME XSTACK, 60, STACK
        ARGFRAME IOVERLAY, 0, STATIC
        ARGFRAME DOVERLAY, 0, STATIC
        EXTERN sprintf
        FUNCTION sprintf,0202H
        ARGFRAME ISTACK, 0, STACK
        ARGFRAME PSTACK, 0, STACK
        ARGFRAME XSTACK, 74, STACK
        ARGFRAME IOVERLAY, 0, STATIC
        ARGFRAME DOVERLAY, 0, STATIC
        EXTERN osal_strlen
        FUNCTION osal_strlen,0202H
        ARGFRAME ISTACK, 0, STACK
        ARGFRAME PSTACK, 0, STACK
        ARGFRAME XSTACK, 65, STACK
        ARGFRAME IOVERLAY, 0, STATIC
        ARGFRAME DOVERLAY, 0, STATIC
        EXTERN zb_SendDataRequest
        FUNCTION zb_SendDataRequest,0202H
        ARGFRAME ISTACK, 0, STACK
        ARGFRAME PSTACK, 0, STACK
        ARGFRAME XSTACK, 65, STACK
        ARGFRAME IOVERLAY, 0, STATIC
        ARGFRAME DOVERLAY, 0, STATIC
        EXTERN STEER_INIT
        FUNCTION STEER_INIT,0202H
        ARGFRAME ISTACK, 0, STACK
        ARGFRAME PSTACK, 0, STACK
        ARGFRAME XSTACK, 10, STACK
        ARGFRAME IOVERLAY, 0, STATIC
        ARGFRAME DOVERLAY, 0, STATIC
        EXTERN HalLedSet
        FUNCTION HalLedSet,0202H
        ARGFRAME ISTACK, 0, STACK
        ARGFRAME PSTACK, 0, STACK
        ARGFRAME XSTACK, 10, STACK
        ARGFRAME IOVERLAY, 0, STATIC
        ARGFRAME DOVERLAY, 0, STATIC
        EXTERN osal_start_reload_timer
        FUNCTION osal_start_reload_timer,0202H
        ARGFRAME ISTACK, 0, STACK
        ARGFRAME PSTACK, 0, STACK
        ARGFRAME XSTACK, 10, STACK
        ARGFRAME IOVERLAY, 0, STATIC
        ARGFRAME DOVERLAY, 0, STATIC
        EXTERN open
        FUNCTION open,0202H
        ARGFRAME ISTACK, 2, STACK
        ARGFRAME PSTACK, 0, STACK
        ARGFRAME XSTACK, 0, STACK
        ARGFRAME IOVERLAY, 0, STATIC
        ARGFRAME DOVERLAY, 0, STATIC
        EXTERN close
        FUNCTION close,0202H
        ARGFRAME ISTACK, 2, STACK
        ARGFRAME PSTACK, 0, STACK
        ARGFRAME XSTACK, 0, STACK
        ARGFRAME IOVERLAY, 0, STATIC
        ARGFRAME DOVERLAY, 0, STATIC
        EXTERN ??HalLedSet?relay
        FUNCTION ??HalLedSet?relay,00H
        EXTERN ??ReadGasData?relay
        FUNCTION ??ReadGasData?relay,00H
        EXTERN ??STATE?relay
        FUNCTION ??STATE?relay,00H
        EXTERN ??STEER_INIT?relay
        FUNCTION ??STEER_INIT?relay,00H
        EXTERN ??close?relay
        FUNCTION ??close?relay,00H
        EXTERN ??no_warm?relay
        FUNCTION ??no_warm?relay,00H
        EXTERN ??open?relay
        FUNCTION ??open?relay,00H
        EXTERN ??osal_start_reload_timer?relay
        FUNCTION ??osal_start_reload_timer?relay,00H
        EXTERN ??osal_strlen?relay
        FUNCTION ??osal_strlen?relay,00H
        EXTERN ??sprintf?relay
        FUNCTION ??sprintf?relay,00H
        EXTERN ??warming?relay
        FUNCTION ??warming?relay,00H
        EXTERN ??zb_SendDataRequest?relay
        FUNCTION ??zb_SendDataRequest?relay,00H
        EXTERN sapi_TaskID

// D:\ZStack-CC2530-2.5.1a\Projects\zstack\Samples\Design\Source\kitchen.c
//    1 #include "ZComDef.h"
//    2 #include "OSAL.h"
//    3 #include "sapi.h"
//    4 #include "smartHome.h"
//    5 #include "dht11.h"
//    6 #include "stdio.h"
//    7 #include "hal_uart.h"
//    8 #include "hal_led.h"
//    9 #include "steer.h"
//   10 #include "string.h"
//   11 #include "mq2.h"
//   12 
//   13 #define NUM_IN_CMD_SENSORDEVICE 1
//   14 #define NUM_OUT_CMD_SENSORDEVICE 2
//   15 

        RSEG XDATA_Z:XDATA:NOROOT(0)
        DATA16
//   16 uint16 AUTO = 0;
AUTO:
        DS 2
        REQUIRE __INIT_XDATA_Z

        RSEG XDATA_I:XDATA:NOROOT(0)
//   17 uint16 ID = 1;
ID:
        DATA16
        DS 2
        REQUIRE `?<Initializer for ID>`
        REQUIRE __INIT_XDATA_I

        RSEG XDATA_Z:XDATA:NOROOT(0)
        DATA16
//   18 uint8 DEVICENAME[2];
DEVICENAME:
        DS 2
        REQUIRE __INIT_XDATA_Z

        RSEG XDATA_Z:XDATA:NOROOT(0)
        DATA16
//   19 uint16 FUN;
FUN:
        DS 2
        REQUIRE __INIT_XDATA_Z

        RSEG XDATA_Z:XDATA:NOROOT(0)
        DATA16
//   20 uint16 MQ2;
MQ2:
        DS 2
        REQUIRE __INIT_XDATA_Z

        RSEG XDATA_ROM_C:CONST:REORDER:NOROOT(0)
        DATA16
//   21 const cId_t SensorDeviceInputCommandList[NUM_IN_CMD_SENSORDEVICE] =
SensorDeviceInputCommandList:
        DW 3
//   22     {TOGGLE_CMD_ID};

        RSEG XDATA_ROM_C:CONST:REORDER:NOROOT(0)
        DATA32
//   23 const cId_t SensorDeviceOutputCommandList[NUM_OUT_CMD_SENSORDEVICE] =
SensorDeviceOutputCommandList:
        DATA16
        DW 1
        DW 2
//   24     {ENDJOINNET_CMD_ID, DATA_SEND_CMD_ID};

        RSEG XDATA_ROM_C:CONST:REORDER:NOROOT(0)
        DATA8
//   25 const SimpleDescriptionFormat_t zb_SimpleDesc =
zb_SimpleDesc:
        DB 1
        DATA16
        DW 1281
        DW 2
        DATA8
        DB 0
        DB 1
        DATA16
        DW SensorDeviceInputCommandList
        DATA8
        DB 2
        DATA16
        DW SensorDeviceOutputCommandList
//   26     {
//   27         ENDPOINT_ID_SMARTHOME,
//   28         PROFILE_ID_SMARTHOME,
//   29         DEVICE_ID_SENSOR,
//   30         DEVIDE_VERSION_ID,
//   31         0,
//   32         NUM_IN_CMD_SENSORDEVICE,
//   33         (cId_t *)SensorDeviceInputCommandList,
//   34         NUM_OUT_CMD_SENSORDEVICE,
//   35         (cId_t *)SensorDeviceOutputCommandList};
//   36 
//   37 //用来处理用户的自定义事件

        RSEG BANKED_CODE:CODE:NOROOT(0)
//   38 void zb_HandleOsalEvent(uint16 event)
zb_HandleOsalEvent:
        CFI Block cfiBlock0 Using cfiCommon0
        CFI Function zb_HandleOsalEvent
        CODE
//   39 {
        FUNCALL zb_HandleOsalEvent, ReadGasData
        LOCFRAME ISTACK, 0, STACK
        LOCFRAME PSTACK, 0, STACK
        LOCFRAME XSTACK, 60, STACK
        LOCFRAME IOVERLAY, 0, STATIC
        LOCFRAME DOVERLAY, 0, STATIC
        ARGFRAME ISTACK, 0, STACK
        ARGFRAME PSTACK, 0, STACK
        ARGFRAME XSTACK, 60, STACK
        ARGFRAME IOVERLAY, 0, STATIC
        ARGFRAME DOVERLAY, 0, STATIC
        FUNCALL zb_HandleOsalEvent, warming
        LOCFRAME ISTACK, 0, STACK
        LOCFRAME PSTACK, 0, STACK
        LOCFRAME XSTACK, 60, STACK
        LOCFRAME IOVERLAY, 0, STATIC
        LOCFRAME DOVERLAY, 0, STATIC
        ARGFRAME ISTACK, 0, STACK
        ARGFRAME PSTACK, 0, STACK
        ARGFRAME XSTACK, 60, STACK
        ARGFRAME IOVERLAY, 0, STATIC
        ARGFRAME DOVERLAY, 0, STATIC
        FUNCALL zb_HandleOsalEvent, no_warm
        LOCFRAME ISTACK, 0, STACK
        LOCFRAME PSTACK, 0, STACK
        LOCFRAME XSTACK, 60, STACK
        LOCFRAME IOVERLAY, 0, STATIC
        LOCFRAME DOVERLAY, 0, STATIC
        ARGFRAME ISTACK, 0, STACK
        ARGFRAME PSTACK, 0, STACK
        ARGFRAME XSTACK, 60, STACK
        ARGFRAME IOVERLAY, 0, STATIC
        ARGFRAME DOVERLAY, 0, STATIC
        FUNCALL zb_HandleOsalEvent, STATE
        LOCFRAME ISTACK, 0, STACK
        LOCFRAME PSTACK, 0, STACK
        LOCFRAME XSTACK, 60, STACK
        LOCFRAME IOVERLAY, 0, STATIC
        LOCFRAME DOVERLAY, 0, STATIC
        ARGFRAME ISTACK, 0, STACK
        ARGFRAME PSTACK, 0, STACK
        ARGFRAME XSTACK, 60, STACK
        ARGFRAME IOVERLAY, 0, STATIC
        ARGFRAME DOVERLAY, 0, STATIC
        FUNCALL zb_HandleOsalEvent, sprintf
        LOCFRAME ISTACK, 0, STACK
        LOCFRAME PSTACK, 0, STACK
        LOCFRAME XSTACK, 74, STACK
        LOCFRAME IOVERLAY, 0, STATIC
        LOCFRAME DOVERLAY, 0, STATIC
        ARGFRAME ISTACK, 0, STACK
        ARGFRAME PSTACK, 0, STACK
        ARGFRAME XSTACK, 74, STACK
        ARGFRAME IOVERLAY, 0, STATIC
        ARGFRAME DOVERLAY, 0, STATIC
        FUNCALL zb_HandleOsalEvent, osal_strlen
        LOCFRAME ISTACK, 0, STACK
        LOCFRAME PSTACK, 0, STACK
        LOCFRAME XSTACK, 65, STACK
        LOCFRAME IOVERLAY, 0, STATIC
        LOCFRAME DOVERLAY, 0, STATIC
        ARGFRAME ISTACK, 0, STACK
        ARGFRAME PSTACK, 0, STACK
        ARGFRAME XSTACK, 65, STACK
        ARGFRAME IOVERLAY, 0, STATIC
        ARGFRAME DOVERLAY, 0, STATIC
        FUNCALL zb_HandleOsalEvent, zb_SendDataRequest
        LOCFRAME ISTACK, 0, STACK
        LOCFRAME PSTACK, 0, STACK
        LOCFRAME XSTACK, 65, STACK
        LOCFRAME IOVERLAY, 0, STATIC
        LOCFRAME DOVERLAY, 0, STATIC
        ARGFRAME ISTACK, 0, STACK
        ARGFRAME PSTACK, 0, STACK
        ARGFRAME XSTACK, 65, STACK
        ARGFRAME IOVERLAY, 0, STATIC
        ARGFRAME DOVERLAY, 0, STATIC
        MOV     A,#-0xa
        LCALL   ?BANKED_ENTER_XDATA
        CFI DPH0 load(1, XDATA, add(CFA_XSP16, literal(-1)))
        CFI DPL0 load(1, XDATA, add(CFA_XSP16, literal(-2)))
        CFI ?BRET_EXT load(1, XDATA, add(CFA_XSP16, literal(-3)))
        CFI ?RET_HIGH load(1, XDATA, add(CFA_XSP16, literal(-4)))
        CFI ?RET_LOW load(1, XDATA, add(CFA_XSP16, literal(-5)))
        CFI R7 load(1, XDATA, add(CFA_XSP16, literal(-6)))
        CFI V1 load(1, XDATA, add(CFA_XSP16, literal(-7)))
        CFI V0 load(1, XDATA, add(CFA_XSP16, literal(-8)))
        CFI VB load(1, XDATA, add(CFA_XSP16, literal(-9)))
        CFI R6 load(1, XDATA, add(CFA_XSP16, literal(-10)))
        CFI CFA_SP SP+0
        CFI CFA_XSP16 add(XSP16, 10)
        ; Saved register size: 10
        ; Auto size: 50
        MOV     A,#-0x32
        LCALL   ?ALLOC_XSTACK8
        CFI CFA_XSP16 add(XSP16, 60)
//   40   if (event & DATA_GET)
        MOV     A,R2
        MOV     C,0xE0 /* A   */.0
        JC      $+5
        LJMP    ??zb_HandleOsalEvent_0 & 0xFFFF
//   41   {
//   42     uint8 DEVICEINFO[50];
//   43     uint16 BEEP = 0;
//   44     MQ2 = ReadGasData();
        ; Setup parameters for call to function ReadGasData
        LCALL   ??ReadGasData?relay
        MOV     DPTR,#MQ2
        MOV     A,R2
        MOVX    @DPTR,A
        INC     DPTR
        MOV     A,R3
        MOVX    @DPTR,A
//   45     if (MQ2 >= 400)
        MOV     DPTR,#MQ2
        CLR     C
        MOVX    A,@DPTR
        SUBB    A,#-0x70
        INC     DPTR
        MOVX    A,@DPTR
        SUBB    A,#0x1
        JC      ??zb_HandleOsalEvent_1
//   46     {
//   47       BEEP = 1;
        MOV     ?V0 + 0,#0x1
        MOV     ?V0 + 1,#0x0
//   48       warming();
        ; Setup parameters for call to function warming
        LCALL   ??warming?relay
        SJMP    ??zb_HandleOsalEvent_2
//   49     }
//   50     else
//   51     {
//   52       BEEP = 0;
??zb_HandleOsalEvent_1:
        MOV     ?V0 + 0,#0x0
        MOV     ?V0 + 1,#0x0
//   53       no_warm();
        ; Setup parameters for call to function no_warm
        LCALL   ??no_warm?relay
//   54     }
//   55     FUN = STATE();
??zb_HandleOsalEvent_2:
        ; Setup parameters for call to function STATE
        LCALL   ??STATE?relay
        MOV     DPTR,#FUN
        MOV     A,R2
        MOVX    @DPTR,A
        INC     DPTR
        MOV     A,R3
        MOVX    @DPTR,A
//   56     sprintf(DEVICEINFO, "%c%c,%d,%d,%d,%d,%d,\n", DEVICENAME[0], DEVICENAME[1], 1, MQ2, 2, FUN, BEEP);
        ; Setup parameters for call to function sprintf
        MOV     R0,#?V0 + 0
        LCALL   ?PUSH_XSTACK_I_TWO
        CFI CFA_XSP16 add(XSP16, 62)
        MOV     DPTR,#FUN
        LCALL   ?PUSH_XSTACK8_X_TWO
        CFI CFA_XSP16 add(XSP16, 64)
        MOV     ?V0 + 0,#0x2
        MOV     R0,#?V0 + 0
        LCALL   ?PUSH_XSTACK_I_TWO
        CFI CFA_XSP16 add(XSP16, 66)
        MOV     DPTR,#MQ2
        LCALL   ?PUSH_XSTACK8_X_TWO
        CFI CFA_XSP16 add(XSP16, 68)
        MOV     ?V0 + 0,#0x1
        MOV     R0,#?V0 + 0
        LCALL   ?PUSH_XSTACK_I_TWO
        CFI CFA_XSP16 add(XSP16, 70)
        MOV     DPTR,#DEVICENAME + 1
        MOVX    A,@DPTR
        MOV     ?V0 + 0,A
        MOV     R0,#?V0 + 0
        LCALL   ?PUSH_XSTACK_I_TWO
        CFI CFA_XSP16 add(XSP16, 72)
        MOV     DPTR,#DEVICENAME
        MOVX    A,@DPTR
        MOV     ?V0 + 0,A
        MOV     R0,#?V0 + 0
        LCALL   ?PUSH_XSTACK_I_TWO
        CFI CFA_XSP16 add(XSP16, 74)
        MOV     R4,#`?<Constant "%c%c,%d,%d,%d,%d,%d,\\n">` & 0xff
        MOV     R5,#(`?<Constant "%c%c,%d,%d,%d,%d,%d,\\n">` >> 8) & 0xff
        MOV     A,#0xe
        LCALL   ?XSTACK_DISP0_8
        MOV     R2,DPL
        MOV     R3,DPH
        LCALL   ??sprintf?relay
        MOV     A,#0xe
        LCALL   ?DEALLOC_XSTACK8
        CFI CFA_XSP16 add(XSP16, 60)
//   57     zb_SendDataRequest(0X0, DATA_SEND_CMD_ID,
//   58                        osal_strlen(DEVICEINFO), DEVICEINFO, 0, FALSE, AF_DEFAULT_RADIUS);
        ; Setup parameters for call to function zb_SendDataRequest
        MOV     ?V0 + 0,#0x1e
        MOV     R0,#?V0 + 0
        LCALL   ?PUSH_XSTACK_I_ONE
        CFI CFA_XSP16 add(XSP16, 61)
        MOV     ?V0 + 0,#0x0
        MOV     R0,#?V0 + 0
        LCALL   ?PUSH_XSTACK_I_ONE
        CFI CFA_XSP16 add(XSP16, 62)
        MOV     R0,#?V0 + 0
        LCALL   ?PUSH_XSTACK_I_ONE
        CFI CFA_XSP16 add(XSP16, 63)
        MOV     A,#0x3
        LCALL   ?XSTACK_DISP0_8
        MOV     ?V0 + 0,DPL
        MOV     ?V0 + 1,DPH
        MOV     R0,#?V0 + 0
        LCALL   ?PUSH_XSTACK_I_TWO
        CFI CFA_XSP16 add(XSP16, 65)
        ; Setup parameters for call to function osal_strlen
        MOV     A,#0x5
        LCALL   ?XSTACK_DISP0_8
        MOV     R2,DPL
        MOV     R3,DPH
        LCALL   ??osal_strlen?relay
        MOV     A,R2
        MOV     R1,A
        MOV     R4,#0x2
        MOV     R5,#0x0
        MOV     R2,#0x0
        MOV     R3,#0x0
        LCALL   ??zb_SendDataRequest?relay
        MOV     A,#0x5
        LCALL   ?DEALLOC_XSTACK8
        CFI CFA_XSP16 add(XSP16, 60)
//   59   }
//   60 }
??zb_HandleOsalEvent_0:
        MOV     A,#0x32
        LCALL   ?DEALLOC_XSTACK8
        CFI EndBlock cfiBlock0
        REQUIRE ?Subroutine0
        ; // Fall through to label ?Subroutine0

        RSEG BANKED_CODE:CODE:NOROOT(0)
?Subroutine0:
        CFI Block cfiBlock1 Using cfiCommon0
        CFI NoFunction
        CFI CFA_SP SP+0
        CFI CFA_XSP16 add(XSP16, 10)
        CFI VB load(1, XDATA, add(CFA_XSP16, literal(-9)))
        CFI DPL0 load(1, XDATA, add(CFA_XSP16, literal(-2)))
        CFI DPH0 load(1, XDATA, add(CFA_XSP16, literal(-1)))
        CFI R6 load(1, XDATA, add(CFA_XSP16, literal(-10)))
        CFI R7 load(1, XDATA, add(CFA_XSP16, literal(-6)))
        CFI V0 load(1, XDATA, add(CFA_XSP16, literal(-8)))
        CFI V1 load(1, XDATA, add(CFA_XSP16, literal(-7)))
        CFI ?BRET_EXT load(1, XDATA, add(CFA_XSP16, literal(-3)))
        CFI ?RET_HIGH load(1, XDATA, add(CFA_XSP16, literal(-4)))
        CFI ?RET_LOW load(1, XDATA, add(CFA_XSP16, literal(-5)))
        MOV     R7,#0x2
        LJMP    ?BANKED_LEAVE_XDATA
        CFI EndBlock cfiBlock1
//   61 //用来处理按键消息

        RSEG BANKED_CODE:CODE:NOROOT(0)
//   62 void zb_HandleKeys(uint8 shift, uint8 keys)
zb_HandleKeys:
        CFI Block cfiBlock2 Using cfiCommon0
        CFI Function zb_HandleKeys
        CODE
//   63 {
        ; Saved register size: 0
        ; Auto size: 0
//   64 }
        LJMP    ?BRET
        CFI EndBlock cfiBlock2
//   65 //当构建网络或加入网络成功时被调用

        RSEG BANKED_CODE:CODE:NOROOT(0)
//   66 void zb_StartConfirm(uint8 status)
zb_StartConfirm:
        CFI Block cfiBlock3 Using cfiCommon0
        CFI Function zb_StartConfirm
        CODE
//   67 {
        FUNCALL zb_StartConfirm, STEER_INIT
        LOCFRAME ISTACK, 0, STACK
        LOCFRAME PSTACK, 0, STACK
        LOCFRAME XSTACK, 10, STACK
        LOCFRAME IOVERLAY, 0, STATIC
        LOCFRAME DOVERLAY, 0, STATIC
        ARGFRAME ISTACK, 0, STACK
        ARGFRAME PSTACK, 0, STACK
        ARGFRAME XSTACK, 10, STACK
        ARGFRAME IOVERLAY, 0, STATIC
        ARGFRAME DOVERLAY, 0, STATIC
        FUNCALL zb_StartConfirm, HalLedSet
        LOCFRAME ISTACK, 0, STACK
        LOCFRAME PSTACK, 0, STACK
        LOCFRAME XSTACK, 10, STACK
        LOCFRAME IOVERLAY, 0, STATIC
        LOCFRAME DOVERLAY, 0, STATIC
        ARGFRAME ISTACK, 0, STACK
        ARGFRAME PSTACK, 0, STACK
        ARGFRAME XSTACK, 10, STACK
        ARGFRAME IOVERLAY, 0, STATIC
        ARGFRAME DOVERLAY, 0, STATIC
        FUNCALL zb_StartConfirm, HalLedSet
        LOCFRAME ISTACK, 0, STACK
        LOCFRAME PSTACK, 0, STACK
        LOCFRAME XSTACK, 10, STACK
        LOCFRAME IOVERLAY, 0, STATIC
        LOCFRAME DOVERLAY, 0, STATIC
        ARGFRAME ISTACK, 0, STACK
        ARGFRAME PSTACK, 0, STACK
        ARGFRAME XSTACK, 10, STACK
        ARGFRAME IOVERLAY, 0, STATIC
        ARGFRAME DOVERLAY, 0, STATIC
        FUNCALL zb_StartConfirm, osal_strlen
        LOCFRAME ISTACK, 0, STACK
        LOCFRAME PSTACK, 0, STACK
        LOCFRAME XSTACK, 15, STACK
        LOCFRAME IOVERLAY, 0, STATIC
        LOCFRAME DOVERLAY, 0, STATIC
        ARGFRAME ISTACK, 0, STACK
        ARGFRAME PSTACK, 0, STACK
        ARGFRAME XSTACK, 15, STACK
        ARGFRAME IOVERLAY, 0, STATIC
        ARGFRAME DOVERLAY, 0, STATIC
        FUNCALL zb_StartConfirm, zb_SendDataRequest
        LOCFRAME ISTACK, 0, STACK
        LOCFRAME PSTACK, 0, STACK
        LOCFRAME XSTACK, 15, STACK
        LOCFRAME IOVERLAY, 0, STATIC
        LOCFRAME DOVERLAY, 0, STATIC
        ARGFRAME ISTACK, 0, STACK
        ARGFRAME PSTACK, 0, STACK
        ARGFRAME XSTACK, 15, STACK
        ARGFRAME IOVERLAY, 0, STATIC
        ARGFRAME DOVERLAY, 0, STATIC
        FUNCALL zb_StartConfirm, osal_start_reload_timer
        LOCFRAME ISTACK, 0, STACK
        LOCFRAME PSTACK, 0, STACK
        LOCFRAME XSTACK, 10, STACK
        LOCFRAME IOVERLAY, 0, STATIC
        LOCFRAME DOVERLAY, 0, STATIC
        ARGFRAME ISTACK, 0, STACK
        ARGFRAME PSTACK, 0, STACK
        ARGFRAME XSTACK, 10, STACK
        ARGFRAME IOVERLAY, 0, STATIC
        ARGFRAME DOVERLAY, 0, STATIC
        MOV     A,#-0xa
        LCALL   ?BANKED_ENTER_XDATA
        CFI DPH0 load(1, XDATA, add(CFA_XSP16, literal(-1)))
        CFI DPL0 load(1, XDATA, add(CFA_XSP16, literal(-2)))
        CFI ?BRET_EXT load(1, XDATA, add(CFA_XSP16, literal(-3)))
        CFI ?RET_HIGH load(1, XDATA, add(CFA_XSP16, literal(-4)))
        CFI ?RET_LOW load(1, XDATA, add(CFA_XSP16, literal(-5)))
        CFI R7 load(1, XDATA, add(CFA_XSP16, literal(-6)))
        CFI V1 load(1, XDATA, add(CFA_XSP16, literal(-7)))
        CFI V0 load(1, XDATA, add(CFA_XSP16, literal(-8)))
        CFI VB load(1, XDATA, add(CFA_XSP16, literal(-9)))
        CFI R6 load(1, XDATA, add(CFA_XSP16, literal(-10)))
        CFI CFA_SP SP+0
        CFI CFA_XSP16 add(XSP16, 10)
        ; Saved register size: 10
        ; Auto size: 0
        MOV     A,R1
//   68   if (status == ZSUCCESS)
        JNZ     ??zb_StartConfirm_0
//   69   {
//   70     STEER_INIT();
        ; Setup parameters for call to function STEER_INIT
        LCALL   ??STEER_INIT?relay
//   71     DEVICENAME[0] = 'B';
        MOV     DPTR,#DEVICENAME
        MOV     A,#0x42
        MOVX    @DPTR,A
//   72     DEVICENAME[1] = ID + 48;
        MOV     DPTR,#ID
        MOVX    A,@DPTR
        ADD     A,#0x30
        MOV     DPTR,#DEVICENAME + 1
        MOVX    @DPTR,A
//   73     HalLedSet(HAL_LED_1, HAL_LED_MODE_ON);
        ; Setup parameters for call to function HalLedSet
        MOV     R2,#0x1
        MOV     R1,#0x1
        LCALL   ??HalLedSet?relay
//   74     HalLedSet(HAL_LED_2, HAL_LED_MODE_OFF);
        ; Setup parameters for call to function HalLedSet
        MOV     R2,#0x0
        MOV     R1,#0x2
        LCALL   ??HalLedSet?relay
//   75     zb_SendDataRequest(0X0, ENDJOINNET_CMD_ID,
//   76                        osal_strlen(DEVICENAME), DEVICENAME, 0, FALSE, AF_DEFAULT_RADIUS);
        ; Setup parameters for call to function zb_SendDataRequest
        MOV     ?V0 + 0,#0x1e
        MOV     R0,#?V0 + 0
        LCALL   ?PUSH_XSTACK_I_ONE
        CFI CFA_XSP16 add(XSP16, 11)
        MOV     ?V0 + 0,#0x0
        MOV     R0,#?V0 + 0
        LCALL   ?PUSH_XSTACK_I_ONE
        CFI CFA_XSP16 add(XSP16, 12)
        MOV     R0,#?V0 + 0
        LCALL   ?PUSH_XSTACK_I_ONE
        CFI CFA_XSP16 add(XSP16, 13)
        MOV     ?V0 + 0,#DEVICENAME & 0xff
        MOV     ?V0 + 1,#(DEVICENAME >> 8) & 0xff
        MOV     R0,#?V0 + 0
        LCALL   ?PUSH_XSTACK_I_TWO
        CFI CFA_XSP16 add(XSP16, 15)
        ; Setup parameters for call to function osal_strlen
        MOV     R2,#DEVICENAME & 0xff
        MOV     R3,#(DEVICENAME >> 8) & 0xff
        LCALL   ??osal_strlen?relay
        MOV     A,R2
        MOV     R1,A
        MOV     R4,#0x1
        MOV     R5,#0x0
        MOV     R2,#0x0
        MOV     R3,#0x0
        LCALL   ??zb_SendDataRequest?relay
        MOV     A,#0x5
        LCALL   ?DEALLOC_XSTACK8
        CFI CFA_XSP16 add(XSP16, 10)
//   77     osal_start_reload_timer(sapi_TaskID, DATA_GET, 1000);
        ; Setup parameters for call to function osal_start_reload_timer
        MOV     R4,#-0x18
        MOV     R5,#0x3
        MOV     R2,#0x1
        MOV     R3,#0x0
        MOV     DPTR,#sapi_TaskID
        MOVX    A,@DPTR
        MOV     R1,A
        LCALL   ??osal_start_reload_timer?relay
//   78   }
//   79 }
??zb_StartConfirm_0:
        SJMP    ?Subroutine0
        CFI EndBlock cfiBlock3
//   80 //当数据包被接收方收到时调用

        RSEG BANKED_CODE:CODE:NOROOT(0)
//   81 void zb_SendDataConfirm(uint8 handle, uint8 status)
zb_SendDataConfirm:
        CFI Block cfiBlock4 Using cfiCommon0
        CFI Function zb_SendDataConfirm
        CODE
//   82 {
        ; Saved register size: 0
        ; Auto size: 0
//   83 }
        LJMP    ?BRET
        CFI EndBlock cfiBlock4
//   84 

        RSEG BANKED_CODE:CODE:NOROOT(0)
//   85 void zb_BindConfirm(uint16 commandId, uint8 status)
zb_BindConfirm:
        CFI Block cfiBlock5 Using cfiCommon0
        CFI Function zb_BindConfirm
        CODE
//   86 {
        ; Saved register size: 0
        ; Auto size: 0
//   87 }
        LJMP    ?BRET
        CFI EndBlock cfiBlock5
//   88 //其它节点绑定到该节点时调用

        RSEG BANKED_CODE:CODE:NOROOT(0)
//   89 void zb_AllowBindConfirm(uint16 source)
zb_AllowBindConfirm:
        CFI Block cfiBlock6 Using cfiCommon0
        CFI Function zb_AllowBindConfirm
        CODE
//   90 {
        ; Saved register size: 0
        ; Auto size: 0
//   91   (void)source;
//   92 }
        LJMP    ?BRET
        CFI EndBlock cfiBlock6
//   93 //用户任务通过zb_FindDeviceRequest通过节点的物理地址获取节点的网络地址时的调用

        RSEG BANKED_CODE:CODE:NOROOT(0)
//   94 void zb_FindDeviceConfirm(uint8 searchType, uint8 *searchKey, uint8 *result)
zb_FindDeviceConfirm:
        CFI Block cfiBlock7 Using cfiCommon0
        CFI Function zb_FindDeviceConfirm
        CODE
//   95 {
        ; Saved register size: 0
        ; Auto size: 0
//   96 }
        LJMP    ?BRET
        CFI EndBlock cfiBlock7
//   97 
//   98 /******************************************************************************
//   99  * @fn          zb_ReceiveDataIndication
//  100  *
//  101  * @brief       The zb_ReceiveDataIndication callback function is called
//  102  *              asynchronously by the ZigBee stack to notify the application
//  103  *              when data is received from a peer device.
//  104  *
//  105  * @param       source - The short address of the peer device that sent the data
//  106  *              command - The commandId associated with the data
//  107  *              len - The number of bytes in the pData parameter
//  108  *              pData - The data sent by the peer device
//  109  *
//  110  * @return      none
//  111  */

        RSEG BANKED_CODE:CODE:NOROOT(0)
//  112 void zb_ReceiveDataIndication(uint16 source, uint16 command, uint16 len, uint8 *pData)
zb_ReceiveDataIndication:
        CFI Block cfiBlock8 Using cfiCommon0
        CFI Function zb_ReceiveDataIndication
        CODE
//  113 {
        FUNCALL zb_ReceiveDataIndication, open
        LOCFRAME ISTACK, 2, STACK
        LOCFRAME PSTACK, 0, STACK
        LOCFRAME XSTACK, 0, STACK
        LOCFRAME IOVERLAY, 0, STATIC
        LOCFRAME DOVERLAY, 0, STATIC
        ARGFRAME ISTACK, 2, STACK
        ARGFRAME PSTACK, 0, STACK
        ARGFRAME XSTACK, 0, STACK
        ARGFRAME IOVERLAY, 0, STATIC
        ARGFRAME DOVERLAY, 0, STATIC
        FUNCALL zb_ReceiveDataIndication, close
        LOCFRAME ISTACK, 2, STACK
        LOCFRAME PSTACK, 0, STACK
        LOCFRAME XSTACK, 0, STACK
        LOCFRAME IOVERLAY, 0, STATIC
        LOCFRAME DOVERLAY, 0, STATIC
        ARGFRAME ISTACK, 2, STACK
        ARGFRAME PSTACK, 0, STACK
        ARGFRAME XSTACK, 0, STACK
        ARGFRAME IOVERLAY, 0, STATIC
        ARGFRAME DOVERLAY, 0, STATIC
        PUSH    DPL
        CFI DPL0 Frame(CFA_SP, 4)
        CFI CFA_SP SP+-4
        PUSH    DPH
        CFI DPH0 Frame(CFA_SP, 5)
        CFI CFA_SP SP+-5
        ; Saved register size: 2
        ; Auto size: 0
        MOV     A,#0x2
        LCALL   ?XSTACK_DISP0_8
        MOVX    A,@DPTR
        MOV     R0,A
        INC     DPTR
        MOVX    A,@DPTR
        MOV     R1,A
//  114   if (command == TOGGLE_CMD_ID)
        MOV     A,#0x3
        XRL     A,R4
        JNZ     ??zb_ReceiveDataIndication_0
        MOV     A,R5
??zb_ReceiveDataIndication_0:
        JNZ     ??zb_ReceiveDataIndication_1
//  115   {
//  116     if (pData[3] == '1' && pData[5] == '1')
        MOV     DPL,R0
        MOV     DPH,R1
        INC     DPTR
        INC     DPTR
        INC     DPTR
        MOVX    A,@DPTR
        XRL     A,#0x31
        JNZ     ??zb_ReceiveDataIndication_1
        MOV     DPL,R0
        MOV     DPH,R1
        INC     DPTR
        INC     DPTR
        INC     DPTR
        INC     DPTR
        INC     DPTR
        MOVX    A,@DPTR
        XRL     A,#0x31
        JNZ     ??zb_ReceiveDataIndication_2
//  117     {
//  118       open();
        ; Setup parameters for call to function open
        LCALL   ??open?relay
        SJMP    ??zb_ReceiveDataIndication_1
//  119     }
??zb_ReceiveDataIndication_2:
        MOV     DPL,R0
        MOV     DPH,R1
        INC     DPTR
        INC     DPTR
        INC     DPTR
        INC     DPTR
        INC     DPTR
        MOVX    A,@DPTR
        XRL     A,#0x30
        JNZ     ??zb_ReceiveDataIndication_1
//  120     else if (pData[3] == '1' && pData[5] == '0')
//  121     {
//  122       close();
        ; Setup parameters for call to function close
        LCALL   ??close?relay
//  123     }
//  124     else if (pData[0] == 'A' && pData[1] == 'U' && pData[0] == 'T' && pData[1] == 'O')
//  125     {
//  126       AUTO = 1;
//  127     }
//  128     else if (pData[0] == 'N' && pData[1] == 'O' && pData[0] == 'A' && pData[1] == 'U')
//  129     {
//  130       AUTO = 0;
//  131     }
//  132   }
//  133 }
??zb_ReceiveDataIndication_1:
        POP     DPH
        CFI DPH0 SameValue
        CFI CFA_SP SP+-4
        POP     DPL
        CFI DPL0 SameValue
        CFI CFA_SP SP+-3
        LJMP    ?BRET
        CFI EndBlock cfiBlock8

        RSEG XDATA_ID:CODE:NOROOT(0)
`?<Initializer for ID>`:
        DATA16
        DW 1

        RSEG BANK_RELAYS:CODE:REORDER:NOROOT(0)
??zb_HandleOsalEvent?relay:
        LCALL   ?BDISPATCH
        DATA
        DC24    zb_HandleOsalEvent

        RSEG BANK_RELAYS:CODE:REORDER:NOROOT(0)
??zb_HandleKeys?relay:
        LCALL   ?BDISPATCH
        DATA
        DC24    zb_HandleKeys

        RSEG BANK_RELAYS:CODE:REORDER:NOROOT(0)
??zb_StartConfirm?relay:
        LCALL   ?BDISPATCH
        DATA
        DC24    zb_StartConfirm

        RSEG BANK_RELAYS:CODE:REORDER:NOROOT(0)
??zb_SendDataConfirm?relay:
        LCALL   ?BDISPATCH
        DATA
        DC24    zb_SendDataConfirm

        RSEG BANK_RELAYS:CODE:REORDER:NOROOT(0)
??zb_BindConfirm?relay:
        LCALL   ?BDISPATCH
        DATA
        DC24    zb_BindConfirm

        RSEG BANK_RELAYS:CODE:REORDER:NOROOT(0)
??zb_AllowBindConfirm?relay:
        LCALL   ?BDISPATCH
        DATA
        DC24    zb_AllowBindConfirm

        RSEG BANK_RELAYS:CODE:REORDER:NOROOT(0)
??zb_FindDeviceConfirm?relay:
        LCALL   ?BDISPATCH
        DATA
        DC24    zb_FindDeviceConfirm

        RSEG BANK_RELAYS:CODE:REORDER:NOROOT(0)
??zb_ReceiveDataIndication?relay:
        LCALL   ?BDISPATCH
        DATA
        DC24    zb_ReceiveDataIndication

        RSEG XDATA_ROM_C:CONST:REORDER:NOROOT(0)
        DATA8
`?<Constant "%c%c,%d,%d,%d,%d,%d,\\n">`:
        DB "%c%c,%d,%d,%d,%d,%d,\012"

        END
// 
// 434 bytes in segment BANKED_CODE
//  48 bytes in segment BANK_RELAYS
//   2 bytes in segment XDATA_I
//   2 bytes in segment XDATA_ID
//  40 bytes in segment XDATA_ROM_C
//   8 bytes in segment XDATA_Z
// 
// 484 bytes of CODE  memory
//  40 bytes of CONST memory
//  10 bytes of XDATA memory
//
//Errors: none
//Warnings: 4
