///////////////////////////////////////////////////////////////////////////////
//                                                                            /
// IAR C/C++ Compiler V8.10.1.10194/W32 for 8051        17/Dec/2020  13:38:28 /
// Copyright 2004-2011 IAR Systems AB.                                        /
//                                                                            /
//    Core               =  plain                                             /
//    Code model         =  banked                                            /
//    Data model         =  large                                             /
//    Calling convention =  xdata reentrant                                   /
//    Constant location  =  data_rom                                          /
//    Dptr setup         =  1,16                                              /
//    Source file        =  D:\ZStack-CC2530-2.5.1a\Projects\zstack\Samples\D /
//                          esign\Source\IO\sgp30.c                           /
//    Command line       =  -f D:\ZStack-CC2530-2.5.1a\Projects\zstack\Sample /
//                          s\Design\CC2530DB\..\..\..\Tools\CC2530DB\f8wEnde /
//                          v.cfg (-DCPU32MHZ -DROOT=__near_func              /
//                          -DMAC_CFG_TX_DATA_MAX=3 -DMAC_CFG_TX_MAX=6        /
//                          -DMAC_CFG_RX_MAX=3) -f D:\ZStack-CC2530-2.5.1a\Pr /
//                          ojects\zstack\Samples\Design\CC2530DB\..\..\..\To /
//                          ols\CC2530DB\f8wConfig.cfg (-DZIGBEEPRO           /
//                          -DSECURE=0 -DZG_SECURE_DYNAMIC=0 -DREFLECTOR      /
//                          -DDEFAULT_CHANLIST=0x02000000                     /
//                          "-DDEFAULT_CHANLIST=(0XFFFF<<11)"                 /
//                          -DZDAPP_CONFIG_PAN_ID=0x38 -DNWK_START_DELAY=100  /
//                          -DEXTENDED_JOINING_RANDOM_MASK=0x007F             /
//                          -DBEACON_REQUEST_DELAY=100                        /
//                          -DBEACON_REQ_DELAY_MASK=0x00FF                    /
//                          -DLINK_STATUS_JITTER_MASK=0x007F                  /
//                          -DROUTE_EXPIRY_TIME=30 -DAPSC_ACK_WAIT_DURATION_P /
//                          OLLED=3000 -DNWK_INDIRECT_MSG_TIMEOUT=7           /
//                          -DMAX_RREQ_ENTRIES=8 -DAPSC_MAX_FRAME_RETRIES=3   /
//                          -DNWK_MAX_DATA_RETRIES=2                          /
//                          -DMAX_POLL_FAILURE_RETRIES=2 -DMAX_BCAST=9        /
//                          -DAPS_MAX_GROUPS=16 -DMAX_RTG_ENTRIES=40          /
//                          -DNWK_MAX_BINDING_ENTRIES=4                       /
//                          -DMAX_BINDING_CLUSTER_IDS=4                       /
//                          "-DDEFAULT_KEY={0x01, 0x03, 0x05, 0x07, 0x09,     /
//                          0x0B, 0x0D, 0x0F, 0x00, 0x02, 0x04, 0x06, 0x08,   /
//                          0x0A, 0x0C, 0x0D}" -DMAC_MAX_FRAME_SIZE=116       /
//                          -DZDNWKMGR_MIN_TRANSMISSIONS=20 "-DCONST=const    /
//                          __code" -DGENERIC=__generic                       /
//                          -DRFD_RCVC_ALWAYS_ON=FALSE -DPOLL_RATE=1000       /
//                          -DQUEUED_POLL_RATE=100 -DRESPONSE_POLL_RATE=100)  /
//                          -DREJOIN_POLL_RATE=440 D:\ZStack-CC2530-2.5.1a\Pr /
//                          ojects\zstack\Samples\Design\Source\IO\sgp30.c    /
//                          -D ZTOOL_P1 -D xMT_TASK -D xMT_SYS_FUNC -D        /
//                          xMT_ZDO_FUNC -D xLCD_SUPPORTED=DEBUG -D           /
//                          xPOWER_SAVING -lC D:\ZStack-CC2530-2.5.1a\Project /
//                          s\zstack\Samples\Design\CC2530DB\Kitchen\List\    /
//                          -lA D:\ZStack-CC2530-2.5.1a\Projects\zstack\Sampl /
//                          es\Design\CC2530DB\Kitchen\List\ --diag_suppress  /
//                          Pe001,Pa010 -o D:\ZStack-CC2530-2.5.1a\Projects\z /
//                          stack\Samples\Design\CC2530DB\Kitchen\Obj\ -e     /
//                          --no_code_motion --debug --core=plain             /
//                          --dptr=16,1 --data_model=large                    /
//                          --code_model=banked --calling_convention=xdata_re /
//                          entrant --place_constants=data_rom                /
//                          --nr_virtual_regs 16 -I                           /
//                          D:\ZStack-CC2530-2.5.1a\Projects\zstack\Samples\D /
//                          esign\CC2530DB\ -I D:\ZStack-CC2530-2.5.1a\Projec /
//                          ts\zstack\Samples\Design\CC2530DB\..\Source\ -I   /
//                          D:\ZStack-CC2530-2.5.1a\Projects\zstack\Samples\D /
//                          esign\CC2530DB\..\Source\IO\ -I                   /
//                          D:\ZStack-CC2530-2.5.1a\Projects\zstack\Samples\D /
//                          esign\CC2530DB\..\..\..\ZMain\TI2530DB\ -I        /
//                          D:\ZStack-CC2530-2.5.1a\Projects\zstack\Samples\D /
//                          esign\CC2530DB\..\..\..\..\..\Components\hal\incl /
//                          ude\ -I D:\ZStack-CC2530-2.5.1a\Projects\zstack\S /
//                          amples\Design\CC2530DB\..\..\..\..\..\Components\ /
//                          hal\target\CC2530EB\ -I                           /
//                          D:\ZStack-CC2530-2.5.1a\Projects\zstack\Samples\D /
//                          esign\CC2530DB\..\..\..\..\..\Components\mac\incl /
//                          ude\ -I D:\ZStack-CC2530-2.5.1a\Projects\zstack\S /
//                          amples\Design\CC2530DB\..\..\..\..\..\Components\ /
//                          mac\high_level\ -I D:\ZStack-CC2530-2.5.1a\Projec /
//                          ts\zstack\Samples\Design\CC2530DB\..\..\..\..\..\ /
//                          Components\mac\low_level\srf04\ -I                /
//                          D:\ZStack-CC2530-2.5.1a\Projects\zstack\Samples\D /
//                          esign\CC2530DB\..\..\..\..\..\Components\mac\low_ /
//                          level\srf04\single_chip\ -I                       /
//                          D:\ZStack-CC2530-2.5.1a\Projects\zstack\Samples\D /
//                          esign\CC2530DB\..\..\..\..\..\Components\mt\ -I   /
//                          D:\ZStack-CC2530-2.5.1a\Projects\zstack\Samples\D /
//                          esign\CC2530DB\..\..\..\..\..\Components\osal\inc /
//                          lude\ -I D:\ZStack-CC2530-2.5.1a\Projects\zstack\ /
//                          Samples\Design\CC2530DB\..\..\..\..\..\Components /
//                          \services\saddr\ -I D:\ZStack-CC2530-2.5.1a\Proje /
//                          cts\zstack\Samples\Design\CC2530DB\..\..\..\..\.. /
//                          \Components\services\sdata\ -I                    /
//                          D:\ZStack-CC2530-2.5.1a\Projects\zstack\Samples\D /
//                          esign\CC2530DB\..\..\..\..\..\Components\stack\af /
//                          \ -I D:\ZStack-CC2530-2.5.1a\Projects\zstack\Samp /
//                          les\Design\CC2530DB\..\..\..\..\..\Components\sta /
//                          ck\nwk\ -I D:\ZStack-CC2530-2.5.1a\Projects\zstac /
//                          k\Samples\Design\CC2530DB\..\..\..\..\..\Componen /
//                          ts\stack\sapi\ -I D:\ZStack-CC2530-2.5.1a\Project /
//                          s\zstack\Samples\Design\CC2530DB\..\..\..\..\..\C /
//                          omponents\stack\sec\ -I                           /
//                          D:\ZStack-CC2530-2.5.1a\Projects\zstack\Samples\D /
//                          esign\CC2530DB\..\..\..\..\..\Components\stack\sy /
//                          s\ -I D:\ZStack-CC2530-2.5.1a\Projects\zstack\Sam /
//                          ples\Design\CC2530DB\..\..\..\..\..\Components\st /
//                          ack\zdo\ -I D:\ZStack-CC2530-2.5.1a\Projects\zsta /
//                          ck\Samples\Design\CC2530DB\..\..\..\..\..\Compone /
//                          nts\zmac\ -I D:\ZStack-CC2530-2.5.1a\Projects\zst /
//                          ack\Samples\Design\CC2530DB\..\..\..\..\..\Compon /
//                          ents\zmac\f8w\ -Ohz --require_prototypes          /
//    List file          =  D:\ZStack-CC2530-2.5.1a\Projects\zstack\Samples\D /
//                          esign\CC2530DB\Kitchen\List\sgp30.s51             /
//                                                                            /
//                                                                            /
///////////////////////////////////////////////////////////////////////////////

        NAME sgp30

        RTMODEL "__SystemLibrary", "CLib"
        RTMODEL "__calling_convention", "xdata_reentrant"
        RTMODEL "__code_model", "banked"
        RTMODEL "__core", "plain"
        RTMODEL "__data_model", "large"
        RTMODEL "__dptr_size", "16"
        RTMODEL "__extended_stack", "disabled"
        RTMODEL "__location_for_constants", "data"
        RTMODEL "__number_of_dptrs", "1"
        RTMODEL "__rt_version", "1"

        RSEG DOVERLAY:DATA:NOROOT(0)
        RSEG IOVERLAY:IDATA:NOROOT(0)
        RSEG ISTACK:IDATA:NOROOT(0)
        RSEG PSTACK:XDATA:NOROOT(0)
        RSEG XSTACK:XDATA:NOROOT(0)

        EXTERN ?BANKED_ENTER_XDATA
        EXTERN ?BANKED_LEAVE_XDATA
        EXTERN ?BDISPATCH
        EXTERN ?BRET
        EXTERN ?S_SHL
        EXTERN ?V0

        PUBLIC ??Check_Acknowledge_1?relay
        FUNCTION ??Check_Acknowledge_1?relay,0203H
        PUBLIC ??Delay_10us?relay
        FUNCTION ??Delay_10us?relay,0203H
        PUBLIC ??Delay_1u?relay
        FUNCTION ??Delay_1u?relay,0203H
        PUBLIC ??Delay_ms?relay
        FUNCTION ??Delay_ms?relay,0203H
        PUBLIC ??Delay_us?relay
        FUNCTION ??Delay_us?relay,0203H
        PUBLIC ??I2C_Start_1?relay
        FUNCTION ??I2C_Start_1?relay,0203H
        PUBLIC ??I2C_Stop_1?relay
        FUNCTION ??I2C_Stop_1?relay,0203H
        PUBLIC ??ReadI2CByte_1?relay
        FUNCTION ??ReadI2CByte_1?relay,0203H
        PUBLIC ??ReadSDA?relay
        FUNCTION ??ReadSDA?relay,0203H
        PUBLIC ??Read_Air_Quality?relay
        FUNCTION ??Read_Air_Quality?relay,0203H
        PUBLIC ??SEND_0_1?relay
        FUNCTION ??SEND_0_1?relay,0203H
        PUBLIC ??SEND_1_1?relay
        FUNCTION ??SEND_1_1?relay,0203H
        PUBLIC ??SGP30_Init?relay
        FUNCTION ??SGP30_Init?relay,0203H
        PUBLIC ??SGP30_Start_Measure?relay
        FUNCTION ??SGP30_Start_Measure?relay,0203H
        PUBLIC ??WriteI2CByte_1?relay
        FUNCTION ??WriteI2CByte_1?relay,0203H
        PUBLIC ??WriteSCL0?relay
        FUNCTION ??WriteSCL0?relay,0203H
        PUBLIC ??WriteSCL1?relay
        FUNCTION ??WriteSCL1?relay,0203H
        PUBLIC ??WriteSDA0?relay
        FUNCTION ??WriteSDA0?relay,0203H
        PUBLIC ??WriteSDA1?relay
        FUNCTION ??WriteSDA1?relay,0203H
        PUBLIC ??Write_Acknowledge_1?relay
        FUNCTION ??Write_Acknowledge_1?relay,0203H
        PUBLIC Check_Acknowledge_1
        FUNCTION Check_Acknowledge_1,021203H
        ARGFRAME XSTACK, 15, STACK
        ARGFRAME IOVERLAY, 0, STATIC
        ARGFRAME DOVERLAY, 0, STATIC
        LOCFRAME ISTACK, 2, STACK
        PUBLIC Delay_10us
        FUNCTION Delay_10us,021203H
        ARGFRAME XSTACK, 0, STACK
        LOCFRAME ISTACK, 2, STACK
        PUBLIC Delay_1u
        FUNCTION Delay_1u,080203H
        ARGFRAME XSTACK, 9, STACK
        ARGFRAME IOVERLAY, 0, STATIC
        ARGFRAME DOVERLAY, 0, STATIC
        PUBLIC Delay_ms
        FUNCTION Delay_ms,021203H
        ARGFRAME XSTACK, 15, STACK
        ARGFRAME IOVERLAY, 0, STATIC
        ARGFRAME DOVERLAY, 0, STATIC
        LOCFRAME XSTACK, 9, STACK
        PUBLIC Delay_us
        FUNCTION Delay_us,021203H
        ARGFRAME XSTACK, 0, STACK
        LOCFRAME ISTACK, 2, STACK
        PUBLIC I2C_Start_1
        FUNCTION I2C_Start_1,021203H
        ARGFRAME XSTACK, 15, STACK
        ARGFRAME IOVERLAY, 0, STATIC
        ARGFRAME DOVERLAY, 0, STATIC
        LOCFRAME ISTACK, 2, STACK
        PUBLIC I2C_Stop_1
        FUNCTION I2C_Stop_1,021203H
        ARGFRAME XSTACK, 15, STACK
        ARGFRAME IOVERLAY, 0, STATIC
        ARGFRAME DOVERLAY, 0, STATIC
        LOCFRAME ISTACK, 2, STACK
        PUBWEAK P0DIR
        PUBLIC ReadI2CByte_1
        FUNCTION ReadI2CByte_1,021203H
        ARGFRAME XSTACK, 15, STACK
        ARGFRAME IOVERLAY, 0, STATIC
        ARGFRAME DOVERLAY, 0, STATIC
        LOCFRAME XSTACK, 9, STACK
        PUBLIC ReadSDA
        FUNCTION ReadSDA,0203H
        ARGFRAME XSTACK, 0, STACK
        PUBLIC Read_Air_Quality
        FUNCTION Read_Air_Quality,021203H
        ARGFRAME XSTACK, 0, STACK
        LOCFRAME XSTACK, 15, STACK
        PUBLIC SEND_0_1
        FUNCTION SEND_0_1,021203H
        ARGFRAME XSTACK, 10, STACK
        ARGFRAME IOVERLAY, 0, STATIC
        ARGFRAME DOVERLAY, 0, STATIC
        LOCFRAME ISTACK, 2, STACK
        PUBLIC SEND_1_1
        FUNCTION SEND_1_1,021203H
        ARGFRAME XSTACK, 10, STACK
        ARGFRAME IOVERLAY, 0, STATIC
        ARGFRAME DOVERLAY, 0, STATIC
        LOCFRAME ISTACK, 2, STACK
        PUBLIC SGP30_Init
        FUNCTION SGP30_Init,021203H
        ARGFRAME XSTACK, 0, STACK
        LOCFRAME ISTACK, 2, STACK
        PUBLIC SGP30_Start_Measure
        FUNCTION SGP30_Start_Measure,021203H
        ARGFRAME XSTACK, 0, STACK
        ARGFRAME IOVERLAY, 0, STATIC
        ARGFRAME DOVERLAY, 0, STATIC
        LOCFRAME ISTACK, 2, STACK
        PUBLIC WriteI2CByte_1
        FUNCTION WriteI2CByte_1,021203H
        ARGFRAME XSTACK, 15, STACK
        ARGFRAME IOVERLAY, 0, STATIC
        ARGFRAME DOVERLAY, 0, STATIC
        LOCFRAME XSTACK, 10, STACK
        PUBLIC WriteSCL0
        FUNCTION WriteSCL0,0203H
        ARGFRAME XSTACK, 9, STACK
        ARGFRAME IOVERLAY, 0, STATIC
        ARGFRAME DOVERLAY, 0, STATIC
        PUBLIC WriteSCL1
        FUNCTION WriteSCL1,0203H
        ARGFRAME XSTACK, 9, STACK
        ARGFRAME IOVERLAY, 0, STATIC
        ARGFRAME DOVERLAY, 0, STATIC
        PUBLIC WriteSDA0
        FUNCTION WriteSDA0,0203H
        ARGFRAME XSTACK, 0, STACK
        ARGFRAME IOVERLAY, 0, STATIC
        ARGFRAME DOVERLAY, 0, STATIC
        PUBLIC WriteSDA1
        FUNCTION WriteSDA1,0203H
        ARGFRAME XSTACK, 9, STACK
        ARGFRAME IOVERLAY, 0, STATIC
        ARGFRAME DOVERLAY, 0, STATIC
        PUBLIC Write_Acknowledge_1
        FUNCTION Write_Acknowledge_1,021203H
        ARGFRAME XSTACK, 0, STACK
        LOCFRAME ISTACK, 2, STACK
        PUBWEAK _A_P0
        PUBWEAK _A_PSW
        
        CFI Names cfiNames0
        CFI StackFrame CFA_SP SP IDATA
        CFI StackFrame CFA_PSP16 PSP16 XDATA
        CFI StackFrame CFA_XSP16 XSP16 XDATA
        CFI StaticOverlayFrame CFA_IOVERLAY IOVERLAY
        CFI StaticOverlayFrame CFA_DOVERLAY DOVERLAY
        CFI Resource `PSW.CY`:1, `B.BR0`:1, `B.BR1`:1, `B.BR2`:1, `B.BR3`:1
        CFI Resource `B.BR4`:1, `B.BR5`:1, `B.BR6`:1, `B.BR7`:1, `VB.BR8`:1
        CFI Resource `VB.BR9`:1, `VB.BR10`:1, `VB.BR11`:1, `VB.BR12`:1
        CFI Resource `VB.BR13`:1, `VB.BR14`:1, `VB.BR15`:1, VB:8, B:8, A:8
        CFI Resource PSW:8, DPL0:8, DPH0:8, R0:8, R1:8, R2:8, R3:8, R4:8, R5:8
        CFI Resource R6:8, R7:8, V0:8, V1:8, V2:8, V3:8, V4:8, V5:8, V6:8, V7:8
        CFI Resource V8:8, V9:8, V10:8, V11:8, V12:8, V13:8, V14:8, V15:8, SP:8
        CFI Resource PSPH:8, PSPL:8, PSP16:16, XSPH:8, XSPL:8, XSP16:16
        CFI VirtualResource ?RET:24
        CFI Resource ?BRET_EXT:8
        CFI VirtualResource ?RET_HIGH:8, ?RET_LOW:8
        CFI ResourceParts PSP16 PSPH, PSPL
        CFI ResourceParts XSP16 XSPH, XSPL
        CFI ResourceParts ?RET ?BRET_EXT, ?RET_HIGH, ?RET_LOW
        CFI EndNames cfiNames0
        
        CFI Common cfiCommon0 Using cfiNames0
        CFI CodeAlign 1
        CFI DataAlign -1
        CFI ReturnAddress ?RET CODE
        CFI CFA_DOVERLAY Used
        CFI CFA_IOVERLAY Used
        CFI CFA_SP SP+-3
        CFI CFA_PSP16 PSP16+0
        CFI CFA_XSP16 XSP16+0
        CFI `PSW.CY` SameValue
        CFI `B.BR0` SameValue
        CFI `B.BR1` SameValue
        CFI `B.BR2` SameValue
        CFI `B.BR3` SameValue
        CFI `B.BR4` SameValue
        CFI `B.BR5` SameValue
        CFI `B.BR6` SameValue
        CFI `B.BR7` SameValue
        CFI `VB.BR8` SameValue
        CFI `VB.BR9` SameValue
        CFI `VB.BR10` SameValue
        CFI `VB.BR11` SameValue
        CFI `VB.BR12` SameValue
        CFI `VB.BR13` SameValue
        CFI `VB.BR14` SameValue
        CFI `VB.BR15` SameValue
        CFI VB SameValue
        CFI B Undefined
        CFI A Undefined
        CFI PSW SameValue
        CFI DPL0 SameValue
        CFI DPH0 SameValue
        CFI R0 Undefined
        CFI R1 Undefined
        CFI R2 Undefined
        CFI R3 Undefined
        CFI R4 Undefined
        CFI R5 Undefined
        CFI R6 SameValue
        CFI R7 SameValue
        CFI V0 SameValue
        CFI V1 SameValue
        CFI V2 SameValue
        CFI V3 SameValue
        CFI V4 SameValue
        CFI V5 SameValue
        CFI V6 SameValue
        CFI V7 SameValue
        CFI V8 SameValue
        CFI V9 SameValue
        CFI V10 SameValue
        CFI V11 SameValue
        CFI V12 SameValue
        CFI V13 SameValue
        CFI V14 SameValue
        CFI V15 SameValue
        CFI PSPH Undefined
        CFI PSPL Undefined
        CFI XSPH Undefined
        CFI XSPL Undefined
        CFI ?RET Concat
        CFI ?BRET_EXT Frame(CFA_SP, 3)
        CFI ?RET_HIGH Frame(CFA_SP, 2)
        CFI ?RET_LOW Frame(CFA_SP, 1)
        CFI EndCommon cfiCommon0
        
        
        CFI Common cfiCommon1 Using cfiNames0
        CFI CodeAlign 1
        CFI DataAlign -1
        CFI ReturnAddress ?RET CODE
        CFI CFA_DOVERLAY Used
        CFI CFA_IOVERLAY Used
        CFI CFA_SP SP+-2
        CFI CFA_PSP16 PSP16+0
        CFI CFA_XSP16 XSP16+0
        CFI `PSW.CY` SameValue
        CFI `B.BR0` SameValue
        CFI `B.BR1` SameValue
        CFI `B.BR2` SameValue
        CFI `B.BR3` SameValue
        CFI `B.BR4` SameValue
        CFI `B.BR5` SameValue
        CFI `B.BR6` SameValue
        CFI `B.BR7` SameValue
        CFI `VB.BR8` SameValue
        CFI `VB.BR9` SameValue
        CFI `VB.BR10` SameValue
        CFI `VB.BR11` SameValue
        CFI `VB.BR12` SameValue
        CFI `VB.BR13` SameValue
        CFI `VB.BR14` SameValue
        CFI `VB.BR15` SameValue
        CFI VB SameValue
        CFI B SameValue
        CFI A SameValue
        CFI PSW SameValue
        CFI DPL0 SameValue
        CFI DPH0 SameValue
        CFI R0 SameValue
        CFI R1 SameValue
        CFI R2 SameValue
        CFI R3 SameValue
        CFI R4 SameValue
        CFI R5 SameValue
        CFI R6 SameValue
        CFI R7 SameValue
        CFI V0 SameValue
        CFI V1 SameValue
        CFI V2 SameValue
        CFI V3 SameValue
        CFI V4 SameValue
        CFI V5 SameValue
        CFI V6 SameValue
        CFI V7 SameValue
        CFI V8 SameValue
        CFI V9 SameValue
        CFI V10 SameValue
        CFI V11 SameValue
        CFI V12 SameValue
        CFI V13 SameValue
        CFI V14 SameValue
        CFI V15 SameValue
        CFI PSPH Undefined
        CFI PSPL Undefined
        CFI XSPH Undefined
        CFI XSPL Undefined
        CFI ?RET Concat
        CFI ?BRET_EXT SameValue
        CFI ?RET_HIGH Frame(CFA_SP, 2)
        CFI ?RET_LOW Frame(CFA_SP, 1)
        CFI EndCommon cfiCommon1
        
Onboard_wait        SYMBOL "Onboard_wait"
??Onboard_wait?relay SYMBOL "?relay", Onboard_wait
Check_Acknowledge_1 SYMBOL "Check_Acknowledge_1"
??Check_Acknowledge_1?relay SYMBOL "?relay", Check_Acknowledge_1
Delay_10us          SYMBOL "Delay_10us"
??Delay_10us?relay  SYMBOL "?relay", Delay_10us
Delay_1u            SYMBOL "Delay_1u"
??Delay_1u?relay    SYMBOL "?relay", Delay_1u
Delay_ms            SYMBOL "Delay_ms"
??Delay_ms?relay    SYMBOL "?relay", Delay_ms
Delay_us            SYMBOL "Delay_us"
??Delay_us?relay    SYMBOL "?relay", Delay_us
I2C_Start_1         SYMBOL "I2C_Start_1"
??I2C_Start_1?relay SYMBOL "?relay", I2C_Start_1
I2C_Stop_1          SYMBOL "I2C_Stop_1"
??I2C_Stop_1?relay  SYMBOL "?relay", I2C_Stop_1
ReadI2CByte_1       SYMBOL "ReadI2CByte_1"
??ReadI2CByte_1?relay SYMBOL "?relay", ReadI2CByte_1
ReadSDA             SYMBOL "ReadSDA"
??ReadSDA?relay     SYMBOL "?relay", ReadSDA
Read_Air_Quality    SYMBOL "Read_Air_Quality"
??Read_Air_Quality?relay SYMBOL "?relay", Read_Air_Quality
SEND_0_1            SYMBOL "SEND_0_1"
??SEND_0_1?relay    SYMBOL "?relay", SEND_0_1
SEND_1_1            SYMBOL "SEND_1_1"
??SEND_1_1?relay    SYMBOL "?relay", SEND_1_1
SGP30_Init          SYMBOL "SGP30_Init"
??SGP30_Init?relay  SYMBOL "?relay", SGP30_Init
SGP30_Start_Measure SYMBOL "SGP30_Start_Measure"
??SGP30_Start_Measure?relay SYMBOL "?relay", SGP30_Start_Measure
WriteI2CByte_1      SYMBOL "WriteI2CByte_1"
??WriteI2CByte_1?relay SYMBOL "?relay", WriteI2CByte_1
WriteSCL0           SYMBOL "WriteSCL0"
??WriteSCL0?relay   SYMBOL "?relay", WriteSCL0
WriteSCL1           SYMBOL "WriteSCL1"
??WriteSCL1?relay   SYMBOL "?relay", WriteSCL1
WriteSDA0           SYMBOL "WriteSDA0"
??WriteSDA0?relay   SYMBOL "?relay", WriteSDA0
WriteSDA1           SYMBOL "WriteSDA1"
??WriteSDA1?relay   SYMBOL "?relay", WriteSDA1
Write_Acknowledge_1 SYMBOL "Write_Acknowledge_1"
??Write_Acknowledge_1?relay SYMBOL "?relay", Write_Acknowledge_1

        EXTERN Onboard_wait
        FUNCTION Onboard_wait,0202H
        ARGFRAME ISTACK, 2, STACK
        ARGFRAME PSTACK, 0, STACK
        ARGFRAME XSTACK, 9, STACK
        ARGFRAME IOVERLAY, 0, STATIC
        ARGFRAME DOVERLAY, 0, STATIC
        EXTERN ??Onboard_wait?relay
        FUNCTION ??Onboard_wait?relay,00H

// D:\ZStack-CC2530-2.5.1a\Projects\zstack\Samples\Design\Source\IO\sgp30.c
//    1 #include <ioCC2530.h>

        ASEGN SFR_AN:DATA:NOROOT,080H
// union <unnamed> volatile __sfr _A_P0
_A_P0:
        DATA8
        DS 1

        ASEGN SFR_AN:DATA:NOROOT,0d0H
// union <unnamed> volatile __sfr _A_PSW
_A_PSW:
        DATA8
        DS 1

        ASEGN SFR_AN:DATA:NOROOT,0fdH
// unsigned char volatile __sfr P0DIR
P0DIR:
        DATA8
        DS 1
//    2 #include "OnBoard.h"
//    3 #define TRUE 1
//    4 #define FALSE 0
//    5 #define SCL P0_6
//    6 #define SDA P0_5
//    7 
//    8 
//    9 void Delay_1u(unsigned int microSecs);
//   10 void SGP30_Init(void);
//   11 void SGP30_Start_Measure(void);
//   12 void Read_Air_Quality(unsigned int *co2, unsigned int *tvoc);
//   13 void WriteSDA1(void);
//   14 void WriteSDA0(void);
//   15 void WriteSCL1(void);
//   16 void WriteSCL0(void);
//   17 void ReadSDA(void);
//   18 void I2C_Start_1(void);
//   19 void I2C_Stop_1(void);
//   20 void SEND_0_1(void);
//   21 void SEND_1_1(void);
//   22 char Check_Acknowledge_1(void);
//   23 void Write_Acknowledge_1(void);
//   24 void WriteI2CByte_1(char b);
//   25 char ReadI2CByte_1(void);
//   26 void Delay_us(void);
//   27 void Delay_10us(void);
//   28 void Delay_ms(unsigned int Time);

        RSEG BANKED_CODE:CODE:NOROOT(0)
//   29 void Delay_1u(unsigned int microSecs)
Delay_1u:
        CFI Block cfiBlock0 Using cfiCommon0
        CFI Function Delay_1u
        CODE
//   30 {
        ; Saved register size: 0
        ; Auto size: 0
        SJMP    ??Delay_1u_0
//   31 	while (microSecs--)
//   32 	{
//   33 		/* 32 NOPs == 1 usecs */
//   34 		asm("nop");
??Delay_1u_1:
        nop
//   35 		asm("nop");
        nop
//   36 		asm("nop");
        nop
//   37 		asm("nop");
        nop
//   38 		asm("nop");
        nop
//   39 		asm("nop");
        nop
//   40 		asm("nop");
        nop
//   41 		asm("nop");
        nop
//   42 		asm("nop");
        nop
//   43 		asm("nop");
        nop
//   44 		asm("nop");
        nop
//   45 		asm("nop");
        nop
//   46 		asm("nop");
        nop
//   47 		asm("nop");
        nop
//   48 		asm("nop");
        nop
//   49 		asm("nop");
        nop
//   50 		asm("nop");
        nop
//   51 		asm("nop");
        nop
//   52 		asm("nop");
        nop
//   53 		asm("nop");
        nop
//   54 		asm("nop");
        nop
//   55 		asm("nop");
        nop
//   56 		asm("nop");
        nop
//   57 		asm("nop");
        nop
//   58 		asm("nop");
        nop
//   59 		asm("nop");
        nop
//   60 		asm("nop");
        nop
//   61 		asm("nop");
        nop
//   62 		asm("nop");
        nop
//   63 		asm("nop");
        nop
//   64 		asm("nop");
        nop
//   65 		asm("nop");
        nop
//   66 	}
??Delay_1u_0:
        MOV     A,R2
        MOV     R0,A
        MOV     A,R3
        MOV     R1,A
        MOV     A,R0
        ADD     A,#-0x1
        DEC     R2
        MOV     A,R1
        ADDC    A,#-0x1
        MOV     R3,A
        MOV     A,R0
        ORL     A,R1
        JNZ     ??Delay_1u_1
//   67 }
        LJMP    ?BRET
        CFI EndBlock cfiBlock0
//   68 
//   69 

        RSEG BANKED_CODE:CODE:NOROOT(0)
//   70 void Delay_us(void) //1 us延时
Delay_us:
        CFI Block cfiBlock1 Using cfiCommon0
        CFI Function Delay_us
        CODE
//   71 {
        FUNCALL Delay_us, Onboard_wait
        LOCFRAME ISTACK, 2, STACK
        LOCFRAME PSTACK, 0, STACK
        LOCFRAME XSTACK, 0, STACK
        LOCFRAME IOVERLAY, 0, STATIC
        LOCFRAME DOVERLAY, 0, STATIC
        ARGFRAME ISTACK, 2, STACK
        ARGFRAME PSTACK, 0, STACK
        ARGFRAME XSTACK, 0, STACK
        ARGFRAME IOVERLAY, 0, STATIC
        ARGFRAME DOVERLAY, 0, STATIC
        PUSH    DPL
        CFI DPL0 Frame(CFA_SP, 4)
        CFI CFA_SP SP+-4
        PUSH    DPH
        CFI DPH0 Frame(CFA_SP, 5)
        CFI CFA_SP SP+-5
        ; Saved register size: 2
        ; Auto size: 0
//   72     MicroWait(1);   
        ; Setup parameters for call to function Onboard_wait
        MOV     R2,#0x1
        CFI EndBlock cfiBlock1
        REQUIRE ?Subroutine2
        ; // Fall through to label ?Subroutine2
//   73 }

        RSEG BANKED_CODE:CODE:NOROOT(0)
?Subroutine2:
        CFI Block cfiBlock2 Using cfiCommon0
        CFI NoFunction
        CFI CFA_SP SP+-5
        CFI DPL0 Frame(CFA_SP, 4)
        CFI DPH0 Frame(CFA_SP, 5)
        MOV     R3,#0x0
        LCALL   ??Onboard_wait?relay
        SJMP    ??Subroutine11_0
        CFI EndBlock cfiBlock2

        RSEG BANKED_CODE:CODE:NOROOT(0)
?Subroutine0:
        CFI Block cfiBlock3 Using cfiCommon0
        CFI NoFunction
        CFI CFA_SP SP+-5
        CFI DPL0 Frame(CFA_SP, 4)
        CFI DPH0 Frame(CFA_SP, 5)
        LCALL   ??WriteSCL1?relay
        CFI EndBlock cfiBlock3
        ; Setup parameters for call to function Delay_1u
        ; Setup parameters for call to function Delay_1u
        ; Setup parameters for call to function Delay_1u
        REQUIRE ??Subroutine10_0
        ; // Fall through to label ??Subroutine10_0

        RSEG BANKED_CODE:CODE:NOROOT(0)
??Subroutine10_0:
        CFI Block cfiBlock4 Using cfiCommon0
        CFI NoFunction
        CFI CFA_SP SP+-5
        CFI DPL0 Frame(CFA_SP, 4)
        CFI DPH0 Frame(CFA_SP, 5)
        LCALL   ?Subroutine5 & 0xFFFF
        CFI EndBlock cfiBlock4
??CrossCallReturnLabel_9:
        REQUIRE ??Subroutine11_0
        ; // Fall through to label ??Subroutine11_0

        RSEG BANKED_CODE:CODE:NOROOT(0)
??Subroutine11_0:
        CFI Block cfiBlock5 Using cfiCommon0
        CFI NoFunction
        CFI CFA_SP SP+-5
        CFI DPL0 Frame(CFA_SP, 4)
        CFI DPH0 Frame(CFA_SP, 5)
        POP     DPH
        CFI CFA_SP SP+-4
        CFI DPH0 SameValue
        POP     DPL
        CFI CFA_SP SP+-3
        CFI DPL0 SameValue
        LJMP    ?BRET
        CFI EndBlock cfiBlock5
//   74 

        RSEG BANKED_CODE:CODE:NOROOT(0)
//   75 void Delay_10us(void) //10 us延时
Delay_10us:
        CFI Block cfiBlock6 Using cfiCommon0
        CFI Function Delay_10us
        CODE
//   76 {
        FUNCALL Delay_10us, Onboard_wait
        LOCFRAME ISTACK, 2, STACK
        LOCFRAME PSTACK, 0, STACK
        LOCFRAME XSTACK, 0, STACK
        LOCFRAME IOVERLAY, 0, STATIC
        LOCFRAME DOVERLAY, 0, STATIC
        ARGFRAME ISTACK, 2, STACK
        ARGFRAME PSTACK, 0, STACK
        ARGFRAME XSTACK, 0, STACK
        ARGFRAME IOVERLAY, 0, STATIC
        ARGFRAME DOVERLAY, 0, STATIC
        PUSH    DPL
        CFI DPL0 Frame(CFA_SP, 4)
        CFI CFA_SP SP+-4
        PUSH    DPH
        CFI DPH0 Frame(CFA_SP, 5)
        CFI CFA_SP SP+-5
        ; Saved register size: 2
        ; Auto size: 0
//   77    MicroWait(12);
        ; Setup parameters for call to function Onboard_wait
        MOV     R2,#0xc
        SJMP    ?Subroutine2
        CFI EndBlock cfiBlock6
//   78 }
//   79 

        RSEG BANKED_CODE:CODE:NOROOT(0)
//   80 void Delay_ms(unsigned int Time)//n ms延时
Delay_ms:
        CFI Block cfiBlock7 Using cfiCommon0
        CFI Function Delay_ms
        CODE
//   81 {
        FUNCALL Delay_ms, Onboard_wait
        LOCFRAME ISTACK, 0, STACK
        LOCFRAME PSTACK, 0, STACK
        LOCFRAME XSTACK, 9, STACK
        LOCFRAME IOVERLAY, 0, STATIC
        LOCFRAME DOVERLAY, 0, STATIC
        ARGFRAME ISTACK, 0, STACK
        ARGFRAME PSTACK, 0, STACK
        ARGFRAME XSTACK, 9, STACK
        ARGFRAME IOVERLAY, 0, STATIC
        ARGFRAME DOVERLAY, 0, STATIC
        MOV     A,#-0x9
        LCALL   ?BANKED_ENTER_XDATA
        CFI DPH0 load(1, XDATA, add(CFA_XSP16, literal(-1)))
        CFI DPL0 load(1, XDATA, add(CFA_XSP16, literal(-2)))
        CFI ?BRET_EXT load(1, XDATA, add(CFA_XSP16, literal(-3)))
        CFI ?RET_HIGH load(1, XDATA, add(CFA_XSP16, literal(-4)))
        CFI ?RET_LOW load(1, XDATA, add(CFA_XSP16, literal(-5)))
        CFI R7 load(1, XDATA, add(CFA_XSP16, literal(-6)))
        CFI V0 load(1, XDATA, add(CFA_XSP16, literal(-7)))
        CFI VB load(1, XDATA, add(CFA_XSP16, literal(-8)))
        CFI R6 load(1, XDATA, add(CFA_XSP16, literal(-9)))
        CFI CFA_SP SP+0
        CFI CFA_XSP16 add(XSP16, 9)
        ; Saved register size: 9
        ; Auto size: 0
        MOV     A,R2
        MOV     R6,A
        MOV     A,R3
        MOV     R7,A
//   82   unsigned char i;
//   83   while(Time--)
??Delay_ms_0:
        MOV     A,R6
        MOV     R0,A
        MOV     A,R7
        MOV     R1,A
        MOV     A,R0
        ADD     A,#-0x1
        DEC     R6
        MOV     A,R1
        ADDC    A,#-0x1
        MOV     R7,A
        MOV     A,R0
        ORL     A,R1
        JZ      ??Delay_ms_1
//   84   {
//   85     for(i=0;i<100;i++)
        MOV     ?V0 + 0,#0x64
//   86      Delay_10us();
??Delay_ms_2:
        ; Setup parameters for call to function Onboard_wait
        MOV     R2,#0xc
        MOV     R3,#0x0
        LCALL   ??Onboard_wait?relay
        DEC     ?V0 + 0
        MOV     A,?V0 + 0
        JZ      ??Delay_ms_0
        SJMP    ??Delay_ms_2
        CFI EndBlock cfiBlock7
//   87   }
//   88 }
??Delay_ms_1:
        REQUIRE ?Subroutine1
        ; // Fall through to label ?Subroutine1

        RSEG BANKED_CODE:CODE:NOROOT(0)
?Subroutine1:
        CFI Block cfiBlock8 Using cfiCommon0
        CFI NoFunction
        CFI CFA_SP SP+0
        CFI CFA_XSP16 add(XSP16, 9)
        CFI VB load(1, XDATA, add(CFA_XSP16, literal(-8)))
        CFI DPL0 load(1, XDATA, add(CFA_XSP16, literal(-2)))
        CFI DPH0 load(1, XDATA, add(CFA_XSP16, literal(-1)))
        CFI R6 load(1, XDATA, add(CFA_XSP16, literal(-9)))
        CFI R7 load(1, XDATA, add(CFA_XSP16, literal(-6)))
        CFI V0 load(1, XDATA, add(CFA_XSP16, literal(-7)))
        CFI ?BRET_EXT load(1, XDATA, add(CFA_XSP16, literal(-3)))
        CFI ?RET_HIGH load(1, XDATA, add(CFA_XSP16, literal(-4)))
        CFI ?RET_LOW load(1, XDATA, add(CFA_XSP16, literal(-5)))
        MOV     R7,#0x1
        LJMP    ?BANKED_LEAVE_XDATA
        CFI EndBlock cfiBlock8
//   89 
//   90 //初始化IIC总线，查找SGP30

        RSEG BANKED_CODE:CODE:NOROOT(0)
//   91 void SGP30_Init(void)
SGP30_Init:
        CFI Block cfiBlock9 Using cfiCommon0
        CFI Function SGP30_Init
        CODE
//   92 {
        FUNCALL SGP30_Init, I2C_Start_1
        LOCFRAME ISTACK, 2, STACK
        LOCFRAME PSTACK, 0, STACK
        LOCFRAME XSTACK, 0, STACK
        LOCFRAME IOVERLAY, 0, STATIC
        LOCFRAME DOVERLAY, 0, STATIC
        ARGFRAME ISTACK, 2, STACK
        ARGFRAME PSTACK, 0, STACK
        ARGFRAME XSTACK, 0, STACK
        ARGFRAME IOVERLAY, 0, STATIC
        ARGFRAME DOVERLAY, 0, STATIC
        FUNCALL SGP30_Init, WriteI2CByte_1
        LOCFRAME ISTACK, 2, STACK
        LOCFRAME PSTACK, 0, STACK
        LOCFRAME XSTACK, 0, STACK
        LOCFRAME IOVERLAY, 0, STATIC
        LOCFRAME DOVERLAY, 0, STATIC
        ARGFRAME ISTACK, 2, STACK
        ARGFRAME PSTACK, 0, STACK
        ARGFRAME XSTACK, 0, STACK
        ARGFRAME IOVERLAY, 0, STATIC
        ARGFRAME DOVERLAY, 0, STATIC
        FUNCALL SGP30_Init, Check_Acknowledge_1
        LOCFRAME ISTACK, 2, STACK
        LOCFRAME PSTACK, 0, STACK
        LOCFRAME XSTACK, 0, STACK
        LOCFRAME IOVERLAY, 0, STATIC
        LOCFRAME DOVERLAY, 0, STATIC
        ARGFRAME ISTACK, 2, STACK
        ARGFRAME PSTACK, 0, STACK
        ARGFRAME XSTACK, 0, STACK
        ARGFRAME IOVERLAY, 0, STATIC
        ARGFRAME DOVERLAY, 0, STATIC
        FUNCALL SGP30_Init, WriteI2CByte_1
        LOCFRAME ISTACK, 2, STACK
        LOCFRAME PSTACK, 0, STACK
        LOCFRAME XSTACK, 0, STACK
        LOCFRAME IOVERLAY, 0, STATIC
        LOCFRAME DOVERLAY, 0, STATIC
        ARGFRAME ISTACK, 2, STACK
        ARGFRAME PSTACK, 0, STACK
        ARGFRAME XSTACK, 0, STACK
        ARGFRAME IOVERLAY, 0, STATIC
        ARGFRAME DOVERLAY, 0, STATIC
        FUNCALL SGP30_Init, Check_Acknowledge_1
        LOCFRAME ISTACK, 2, STACK
        LOCFRAME PSTACK, 0, STACK
        LOCFRAME XSTACK, 0, STACK
        LOCFRAME IOVERLAY, 0, STATIC
        LOCFRAME DOVERLAY, 0, STATIC
        ARGFRAME ISTACK, 2, STACK
        ARGFRAME PSTACK, 0, STACK
        ARGFRAME XSTACK, 0, STACK
        ARGFRAME IOVERLAY, 0, STATIC
        ARGFRAME DOVERLAY, 0, STATIC
        FUNCALL SGP30_Init, WriteI2CByte_1
        LOCFRAME ISTACK, 2, STACK
        LOCFRAME PSTACK, 0, STACK
        LOCFRAME XSTACK, 0, STACK
        LOCFRAME IOVERLAY, 0, STATIC
        LOCFRAME DOVERLAY, 0, STATIC
        ARGFRAME ISTACK, 2, STACK
        ARGFRAME PSTACK, 0, STACK
        ARGFRAME XSTACK, 0, STACK
        ARGFRAME IOVERLAY, 0, STATIC
        ARGFRAME DOVERLAY, 0, STATIC
        FUNCALL SGP30_Init, Check_Acknowledge_1
        LOCFRAME ISTACK, 2, STACK
        LOCFRAME PSTACK, 0, STACK
        LOCFRAME XSTACK, 0, STACK
        LOCFRAME IOVERLAY, 0, STATIC
        LOCFRAME DOVERLAY, 0, STATIC
        ARGFRAME ISTACK, 2, STACK
        ARGFRAME PSTACK, 0, STACK
        ARGFRAME XSTACK, 0, STACK
        ARGFRAME IOVERLAY, 0, STATIC
        ARGFRAME DOVERLAY, 0, STATIC
        FUNCALL SGP30_Init, I2C_Stop_1
        LOCFRAME ISTACK, 2, STACK
        LOCFRAME PSTACK, 0, STACK
        LOCFRAME XSTACK, 0, STACK
        LOCFRAME IOVERLAY, 0, STATIC
        LOCFRAME DOVERLAY, 0, STATIC
        ARGFRAME ISTACK, 2, STACK
        ARGFRAME PSTACK, 0, STACK
        ARGFRAME XSTACK, 0, STACK
        ARGFRAME IOVERLAY, 0, STATIC
        ARGFRAME DOVERLAY, 0, STATIC
        FUNCALL SGP30_Init, Delay_ms
        LOCFRAME ISTACK, 2, STACK
        LOCFRAME PSTACK, 0, STACK
        LOCFRAME XSTACK, 0, STACK
        LOCFRAME IOVERLAY, 0, STATIC
        LOCFRAME DOVERLAY, 0, STATIC
        ARGFRAME ISTACK, 2, STACK
        ARGFRAME PSTACK, 0, STACK
        ARGFRAME XSTACK, 0, STACK
        ARGFRAME IOVERLAY, 0, STATIC
        ARGFRAME DOVERLAY, 0, STATIC
        FUNCALL SGP30_Init, SGP30_Start_Measure
        LOCFRAME ISTACK, 2, STACK
        LOCFRAME PSTACK, 0, STACK
        LOCFRAME XSTACK, 0, STACK
        LOCFRAME IOVERLAY, 0, STATIC
        LOCFRAME DOVERLAY, 0, STATIC
        ARGFRAME ISTACK, 2, STACK
        ARGFRAME PSTACK, 0, STACK
        ARGFRAME XSTACK, 0, STACK
        ARGFRAME IOVERLAY, 0, STATIC
        ARGFRAME DOVERLAY, 0, STATIC
        PUSH    DPL
        CFI DPL0 Frame(CFA_SP, 4)
        CFI CFA_SP SP+-4
        PUSH    DPH
        CFI DPH0 Frame(CFA_SP, 5)
        CFI CFA_SP SP+-5
        ; Saved register size: 2
        ; Auto size: 0
//   93 	//查看SGP30的序列号，确认已与总线相连
//   94 	I2C_Start_1();
        ; Setup parameters for call to function I2C_Start_1
        LCALL   ?Subroutine6 & 0xFFFF
//   95 	WriteI2CByte_1(0x58 << 1);
//   96 	if (Check_Acknowledge_1())
//   97 	{
//   98 	}
//   99 	else
//  100 	{
//  101 	}
//  102 	WriteI2CByte_1(0x36);
??CrossCallReturnLabel_2:
        ; Setup parameters for call to function WriteI2CByte_1
        MOV     R1,#0x36
        LCALL   ?Subroutine8 & 0xFFFF
//  103 	if (Check_Acknowledge_1())
//  104 	{
//  105 	}
//  106 	else
//  107 	{
//  108 	}
//  109 	WriteI2CByte_1(0x82);
??CrossCallReturnLabel_6:
        ; Setup parameters for call to function WriteI2CByte_1
        MOV     R1,#-0x7e
        LCALL   ?Subroutine7 & 0xFFFF
//  110 	if (Check_Acknowledge_1())
//  111 	{
//  112 	}
//  113 	else
//  114 	{
//  115 	}
//  116 	I2C_Stop_1();
//  117 	Delay_ms(50);
??CrossCallReturnLabel_4:
        ; Setup parameters for call to function Delay_ms
        MOV     R2,#0x32
        MOV     R3,#0x0
        LCALL   ??Delay_ms?relay
//  118 	SGP30_Start_Measure();
        ; Setup parameters for call to function SGP30_Start_Measure
        LCALL   ??SGP30_Start_Measure?relay
//  119 }
        SJMP    ??Subroutine11_0
        CFI EndBlock cfiBlock9
//  120 
//  121 //初始化SGP30的空气质量检测功能

        RSEG BANKED_CODE:CODE:NOROOT(0)
//  122 void SGP30_Start_Measure(void)
SGP30_Start_Measure:
        CFI Block cfiBlock10 Using cfiCommon0
        CFI Function SGP30_Start_Measure
        CODE
//  123 {
        FUNCALL SGP30_Start_Measure, I2C_Start_1
        LOCFRAME ISTACK, 2, STACK
        LOCFRAME PSTACK, 0, STACK
        LOCFRAME XSTACK, 0, STACK
        LOCFRAME IOVERLAY, 0, STATIC
        LOCFRAME DOVERLAY, 0, STATIC
        ARGFRAME ISTACK, 2, STACK
        ARGFRAME PSTACK, 0, STACK
        ARGFRAME XSTACK, 0, STACK
        ARGFRAME IOVERLAY, 0, STATIC
        ARGFRAME DOVERLAY, 0, STATIC
        FUNCALL SGP30_Start_Measure, WriteI2CByte_1
        LOCFRAME ISTACK, 2, STACK
        LOCFRAME PSTACK, 0, STACK
        LOCFRAME XSTACK, 0, STACK
        LOCFRAME IOVERLAY, 0, STATIC
        LOCFRAME DOVERLAY, 0, STATIC
        ARGFRAME ISTACK, 2, STACK
        ARGFRAME PSTACK, 0, STACK
        ARGFRAME XSTACK, 0, STACK
        ARGFRAME IOVERLAY, 0, STATIC
        ARGFRAME DOVERLAY, 0, STATIC
        FUNCALL SGP30_Start_Measure, Check_Acknowledge_1
        LOCFRAME ISTACK, 2, STACK
        LOCFRAME PSTACK, 0, STACK
        LOCFRAME XSTACK, 0, STACK
        LOCFRAME IOVERLAY, 0, STATIC
        LOCFRAME DOVERLAY, 0, STATIC
        ARGFRAME ISTACK, 2, STACK
        ARGFRAME PSTACK, 0, STACK
        ARGFRAME XSTACK, 0, STACK
        ARGFRAME IOVERLAY, 0, STATIC
        ARGFRAME DOVERLAY, 0, STATIC
        FUNCALL SGP30_Start_Measure, WriteI2CByte_1
        LOCFRAME ISTACK, 2, STACK
        LOCFRAME PSTACK, 0, STACK
        LOCFRAME XSTACK, 0, STACK
        LOCFRAME IOVERLAY, 0, STATIC
        LOCFRAME DOVERLAY, 0, STATIC
        ARGFRAME ISTACK, 2, STACK
        ARGFRAME PSTACK, 0, STACK
        ARGFRAME XSTACK, 0, STACK
        ARGFRAME IOVERLAY, 0, STATIC
        ARGFRAME DOVERLAY, 0, STATIC
        FUNCALL SGP30_Start_Measure, Check_Acknowledge_1
        LOCFRAME ISTACK, 2, STACK
        LOCFRAME PSTACK, 0, STACK
        LOCFRAME XSTACK, 0, STACK
        LOCFRAME IOVERLAY, 0, STATIC
        LOCFRAME DOVERLAY, 0, STATIC
        ARGFRAME ISTACK, 2, STACK
        ARGFRAME PSTACK, 0, STACK
        ARGFRAME XSTACK, 0, STACK
        ARGFRAME IOVERLAY, 0, STATIC
        ARGFRAME DOVERLAY, 0, STATIC
        FUNCALL SGP30_Start_Measure, WriteI2CByte_1
        LOCFRAME ISTACK, 2, STACK
        LOCFRAME PSTACK, 0, STACK
        LOCFRAME XSTACK, 0, STACK
        LOCFRAME IOVERLAY, 0, STATIC
        LOCFRAME DOVERLAY, 0, STATIC
        ARGFRAME ISTACK, 2, STACK
        ARGFRAME PSTACK, 0, STACK
        ARGFRAME XSTACK, 0, STACK
        ARGFRAME IOVERLAY, 0, STATIC
        ARGFRAME DOVERLAY, 0, STATIC
        FUNCALL SGP30_Start_Measure, Check_Acknowledge_1
        LOCFRAME ISTACK, 2, STACK
        LOCFRAME PSTACK, 0, STACK
        LOCFRAME XSTACK, 0, STACK
        LOCFRAME IOVERLAY, 0, STATIC
        LOCFRAME DOVERLAY, 0, STATIC
        ARGFRAME ISTACK, 2, STACK
        ARGFRAME PSTACK, 0, STACK
        ARGFRAME XSTACK, 0, STACK
        ARGFRAME IOVERLAY, 0, STATIC
        ARGFRAME DOVERLAY, 0, STATIC
        FUNCALL SGP30_Start_Measure, I2C_Stop_1
        LOCFRAME ISTACK, 2, STACK
        LOCFRAME PSTACK, 0, STACK
        LOCFRAME XSTACK, 0, STACK
        LOCFRAME IOVERLAY, 0, STATIC
        LOCFRAME DOVERLAY, 0, STATIC
        ARGFRAME ISTACK, 2, STACK
        ARGFRAME PSTACK, 0, STACK
        ARGFRAME XSTACK, 0, STACK
        ARGFRAME IOVERLAY, 0, STATIC
        ARGFRAME DOVERLAY, 0, STATIC
        FUNCALL SGP30_Start_Measure, Delay_ms
        LOCFRAME ISTACK, 2, STACK
        LOCFRAME PSTACK, 0, STACK
        LOCFRAME XSTACK, 0, STACK
        LOCFRAME IOVERLAY, 0, STATIC
        LOCFRAME DOVERLAY, 0, STATIC
        ARGFRAME ISTACK, 2, STACK
        ARGFRAME PSTACK, 0, STACK
        ARGFRAME XSTACK, 0, STACK
        ARGFRAME IOVERLAY, 0, STATIC
        ARGFRAME DOVERLAY, 0, STATIC
        FUNCALL SGP30_Start_Measure, I2C_Start_1
        LOCFRAME ISTACK, 2, STACK
        LOCFRAME PSTACK, 0, STACK
        LOCFRAME XSTACK, 0, STACK
        LOCFRAME IOVERLAY, 0, STATIC
        LOCFRAME DOVERLAY, 0, STATIC
        ARGFRAME ISTACK, 2, STACK
        ARGFRAME PSTACK, 0, STACK
        ARGFRAME XSTACK, 0, STACK
        ARGFRAME IOVERLAY, 0, STATIC
        ARGFRAME DOVERLAY, 0, STATIC
        FUNCALL SGP30_Start_Measure, WriteI2CByte_1
        LOCFRAME ISTACK, 2, STACK
        LOCFRAME PSTACK, 0, STACK
        LOCFRAME XSTACK, 0, STACK
        LOCFRAME IOVERLAY, 0, STATIC
        LOCFRAME DOVERLAY, 0, STATIC
        ARGFRAME ISTACK, 2, STACK
        ARGFRAME PSTACK, 0, STACK
        ARGFRAME XSTACK, 0, STACK
        ARGFRAME IOVERLAY, 0, STATIC
        ARGFRAME DOVERLAY, 0, STATIC
        FUNCALL SGP30_Start_Measure, Check_Acknowledge_1
        LOCFRAME ISTACK, 2, STACK
        LOCFRAME PSTACK, 0, STACK
        LOCFRAME XSTACK, 0, STACK
        LOCFRAME IOVERLAY, 0, STATIC
        LOCFRAME DOVERLAY, 0, STATIC
        ARGFRAME ISTACK, 2, STACK
        ARGFRAME PSTACK, 0, STACK
        ARGFRAME XSTACK, 0, STACK
        ARGFRAME IOVERLAY, 0, STATIC
        ARGFRAME DOVERLAY, 0, STATIC
        FUNCALL SGP30_Start_Measure, WriteI2CByte_1
        LOCFRAME ISTACK, 2, STACK
        LOCFRAME PSTACK, 0, STACK
        LOCFRAME XSTACK, 0, STACK
        LOCFRAME IOVERLAY, 0, STATIC
        LOCFRAME DOVERLAY, 0, STATIC
        ARGFRAME ISTACK, 2, STACK
        ARGFRAME PSTACK, 0, STACK
        ARGFRAME XSTACK, 0, STACK
        ARGFRAME IOVERLAY, 0, STATIC
        ARGFRAME DOVERLAY, 0, STATIC
        FUNCALL SGP30_Start_Measure, Check_Acknowledge_1
        LOCFRAME ISTACK, 2, STACK
        LOCFRAME PSTACK, 0, STACK
        LOCFRAME XSTACK, 0, STACK
        LOCFRAME IOVERLAY, 0, STATIC
        LOCFRAME DOVERLAY, 0, STATIC
        ARGFRAME ISTACK, 2, STACK
        ARGFRAME PSTACK, 0, STACK
        ARGFRAME XSTACK, 0, STACK
        ARGFRAME IOVERLAY, 0, STATIC
        ARGFRAME DOVERLAY, 0, STATIC
        FUNCALL SGP30_Start_Measure, WriteI2CByte_1
        LOCFRAME ISTACK, 2, STACK
        LOCFRAME PSTACK, 0, STACK
        LOCFRAME XSTACK, 0, STACK
        LOCFRAME IOVERLAY, 0, STATIC
        LOCFRAME DOVERLAY, 0, STATIC
        ARGFRAME ISTACK, 2, STACK
        ARGFRAME PSTACK, 0, STACK
        ARGFRAME XSTACK, 0, STACK
        ARGFRAME IOVERLAY, 0, STATIC
        ARGFRAME DOVERLAY, 0, STATIC
        FUNCALL SGP30_Start_Measure, Check_Acknowledge_1
        LOCFRAME ISTACK, 2, STACK
        LOCFRAME PSTACK, 0, STACK
        LOCFRAME XSTACK, 0, STACK
        LOCFRAME IOVERLAY, 0, STATIC
        LOCFRAME DOVERLAY, 0, STATIC
        ARGFRAME ISTACK, 2, STACK
        ARGFRAME PSTACK, 0, STACK
        ARGFRAME XSTACK, 0, STACK
        ARGFRAME IOVERLAY, 0, STATIC
        ARGFRAME DOVERLAY, 0, STATIC
        FUNCALL SGP30_Start_Measure, I2C_Stop_1
        LOCFRAME ISTACK, 2, STACK
        LOCFRAME PSTACK, 0, STACK
        LOCFRAME XSTACK, 0, STACK
        LOCFRAME IOVERLAY, 0, STATIC
        LOCFRAME DOVERLAY, 0, STATIC
        ARGFRAME ISTACK, 2, STACK
        ARGFRAME PSTACK, 0, STACK
        ARGFRAME XSTACK, 0, STACK
        ARGFRAME IOVERLAY, 0, STATIC
        ARGFRAME DOVERLAY, 0, STATIC
        PUSH    DPL
        CFI DPL0 Frame(CFA_SP, 4)
        CFI CFA_SP SP+-4
        PUSH    DPH
        CFI DPH0 Frame(CFA_SP, 5)
        CFI CFA_SP SP+-5
        ; Saved register size: 2
        ; Auto size: 0
//  124 	//发送Init_air_quality命令
//  125 	I2C_Start_1();
        ; Setup parameters for call to function I2C_Start_1
        LCALL   ?Subroutine6 & 0xFFFF
//  126 	WriteI2CByte_1(0x58 << 1);
//  127 	if (Check_Acknowledge_1())
//  128 	{
//  129 	}
//  130 	else
//  131 	{
//  132 	}
//  133 	WriteI2CByte_1(0x20);
??CrossCallReturnLabel_3:
        ; Setup parameters for call to function WriteI2CByte_1
        MOV     R1,#0x20
        LCALL   ?Subroutine8 & 0xFFFF
//  134 	if (Check_Acknowledge_1())
//  135 	{
//  136 	}
//  137 	else
//  138 	{
//  139 	}
//  140 	WriteI2CByte_1(0x03);
??CrossCallReturnLabel_7:
        ; Setup parameters for call to function WriteI2CByte_1
        MOV     R1,#0x3
        LCALL   ?Subroutine7 & 0xFFFF
//  141 	if (Check_Acknowledge_1())
//  142 	{
//  143 	}
//  144 	else
//  145 	{
//  146 	}
//  147 	I2C_Stop_1();
//  148 
//  149 	Delay_ms(10000); //需要时间间隔进行初始化
??CrossCallReturnLabel_5:
        ; Setup parameters for call to function Delay_ms
        MOV     R2,#0x10
        MOV     R3,#0x27
        LCALL   ??Delay_ms?relay
//  150 
//  151 	//发送Measure_air_quality命令
//  152 	I2C_Start_1();
        ; Setup parameters for call to function I2C_Start_1
        LCALL   ?Subroutine3 & 0xFFFF
//  153 	WriteI2CByte_1(0x58 << 1);
//  154 	Check_Acknowledge_1();
//  155 	WriteI2CByte_1(0x20);
//  156 	Check_Acknowledge_1();
//  157 	WriteI2CByte_1(0x08);
//  158 	Check_Acknowledge_1();
//  159 	I2C_Stop_1();
??CrossCallReturnLabel_0:
        ; Setup parameters for call to function I2C_Stop_1
        LCALL   ??I2C_Stop_1?relay
//  160 }
        SJMP    ??Subroutine11_0
        CFI EndBlock cfiBlock10

        RSEG BANKED_CODE:CODE:NOROOT(0)
?Subroutine8:
        CFI Block cfiCond11 Using cfiCommon0
        CFI NoFunction
        CFI Conditional ??CrossCallReturnLabel_6
        CFI DPL0 Frame(CFA_SP, 4)
        CFI DPH0 Frame(CFA_SP, 5)
        CFI CFA_SP SP+-5
        CFI Block cfiCond12 Using cfiCommon0
        CFI (cfiCond12) NoFunction
        CFI (cfiCond12) Conditional ??CrossCallReturnLabel_7
        CFI (cfiCond12) DPL0 Frame(CFA_SP, 4)
        CFI (cfiCond12) DPH0 Frame(CFA_SP, 5)
        CFI (cfiCond12) CFA_SP SP+-5
        CFI Block cfiCond13 Using cfiCommon0
        CFI (cfiCond13) NoFunction
        CFI (cfiCond13) Conditional ??CrossCallReturnLabel_8
        CFI (cfiCond13) R6 load(1, XDATA, add(CFA_XSP16, literal(-15)))
        CFI (cfiCond13) VB load(1, XDATA, add(CFA_XSP16, literal(-14)))
        CFI (cfiCond13) V0 load(1, XDATA, add(CFA_XSP16, literal(-13)))
        CFI (cfiCond13) V1 load(1, XDATA, add(CFA_XSP16, literal(-12)))
        CFI (cfiCond13) V2 load(1, XDATA, add(CFA_XSP16, literal(-11)))
        CFI (cfiCond13) V3 load(1, XDATA, add(CFA_XSP16, literal(-10)))
        CFI (cfiCond13) V4 load(1, XDATA, add(CFA_XSP16, literal(-9)))
        CFI (cfiCond13) V5 load(1, XDATA, add(CFA_XSP16, literal(-8)))
        CFI (cfiCond13) V6 load(1, XDATA, add(CFA_XSP16, literal(-7)))
        CFI (cfiCond13) R7 load(1, XDATA, add(CFA_XSP16, literal(-6)))
        CFI (cfiCond13) ?RET_LOW load(1, XDATA, add(CFA_XSP16, literal(-5)))
        CFI (cfiCond13) ?RET_HIGH load(1, XDATA, add(CFA_XSP16, literal(-4)))
        CFI (cfiCond13) ?BRET_EXT load(1, XDATA, add(CFA_XSP16, literal(-3)))
        CFI (cfiCond13) DPL0 load(1, XDATA, add(CFA_XSP16, literal(-2)))
        CFI (cfiCond13) DPH0 load(1, XDATA, add(CFA_XSP16, literal(-1)))
        CFI (cfiCond13) CFA_SP SP+0
        CFI (cfiCond13) CFA_XSP16 add(XSP16, 15)
        CFI Block cfiPicker14 Using cfiCommon1
        CFI (cfiPicker14) NoFunction
        CFI (cfiPicker14) Picker
        LCALL   ??Subroutine12_0 & 0xFFFF
??CrossCallReturnLabel_13:
        RET
        CFI EndBlock cfiCond11
        CFI EndBlock cfiCond12
        CFI EndBlock cfiCond13
        CFI EndBlock cfiPicker14

        RSEG BANKED_CODE:CODE:NOROOT(0)
?Subroutine7:
        CFI Block cfiCond15 Using cfiCommon0
        CFI NoFunction
        CFI Conditional ??CrossCallReturnLabel_4
        CFI DPL0 Frame(CFA_SP, 4)
        CFI DPH0 Frame(CFA_SP, 5)
        CFI CFA_SP SP+-5
        CFI Block cfiCond16 Using cfiCommon0
        CFI (cfiCond16) NoFunction
        CFI (cfiCond16) Conditional ??CrossCallReturnLabel_5
        CFI (cfiCond16) DPL0 Frame(CFA_SP, 4)
        CFI (cfiCond16) DPH0 Frame(CFA_SP, 5)
        CFI (cfiCond16) CFA_SP SP+-5
        CFI Block cfiPicker17 Using cfiCommon1
        CFI (cfiPicker17) NoFunction
        CFI (cfiPicker17) Picker
        LCALL   ??Subroutine12_0 & 0xFFFF
??CrossCallReturnLabel_14:
        ; Setup parameters for call to function I2C_Stop_1
        ; Setup parameters for call to function I2C_Stop_1
        LCALL   ??I2C_Stop_1?relay
        RET
        CFI EndBlock cfiCond15
        CFI EndBlock cfiCond16
        CFI EndBlock cfiPicker17

        RSEG BANKED_CODE:CODE:NOROOT(0)
?Subroutine6:
        CFI Block cfiCond18 Using cfiCommon0
        CFI NoFunction
        CFI Conditional ??CrossCallReturnLabel_2
        CFI DPL0 Frame(CFA_SP, 4)
        CFI DPH0 Frame(CFA_SP, 5)
        CFI CFA_SP SP+-5
        CFI Block cfiCond19 Using cfiCommon0
        CFI (cfiCond19) NoFunction
        CFI (cfiCond19) Conditional ??CrossCallReturnLabel_3
        CFI (cfiCond19) DPL0 Frame(CFA_SP, 4)
        CFI (cfiCond19) DPH0 Frame(CFA_SP, 5)
        CFI (cfiCond19) CFA_SP SP+-5
        CFI Block cfiPicker20 Using cfiCommon1
        CFI (cfiPicker20) NoFunction
        CFI (cfiPicker20) Picker
        LCALL   ?Subroutine9 & 0xFFFF
??CrossCallReturnLabel_11:
        RET
        CFI EndBlock cfiCond18
        CFI EndBlock cfiCond19
        CFI EndBlock cfiPicker20

        RSEG BANKED_CODE:CODE:NOROOT(0)
?Subroutine9:
        CFI Block cfiCond21 Using cfiCommon0
        CFI NoFunction
        CFI Conditional ??CrossCallReturnLabel_11, ??CrossCallReturnLabel_2
        CFI DPL0 Frame(CFA_SP, 4)
        CFI DPH0 Frame(CFA_SP, 5)
        CFI CFA_SP SP+-5
        CFI Block cfiCond22 Using cfiCommon0
        CFI (cfiCond22) NoFunction
        CFI (cfiCond22) Conditional ??CrossCallReturnLabel_11, ??CrossCallReturnLabel_3
        CFI (cfiCond22) DPL0 Frame(CFA_SP, 4)
        CFI (cfiCond22) DPH0 Frame(CFA_SP, 5)
        CFI (cfiCond22) CFA_SP SP+-5
        CFI Block cfiCond23 Using cfiCommon0
        CFI (cfiCond23) NoFunction
        CFI (cfiCond23) Conditional ??CrossCallReturnLabel_12, ??CrossCallReturnLabel_0
        CFI (cfiCond23) DPL0 Frame(CFA_SP, 4)
        CFI (cfiCond23) DPH0 Frame(CFA_SP, 5)
        CFI (cfiCond23) CFA_SP SP+-5
        CFI Block cfiCond24 Using cfiCommon0
        CFI (cfiCond24) NoFunction
        CFI (cfiCond24) Conditional ??CrossCallReturnLabel_12, ??CrossCallReturnLabel_1
        CFI (cfiCond24) R6 load(1, XDATA, add(CFA_XSP16, literal(-15)))
        CFI (cfiCond24) VB load(1, XDATA, add(CFA_XSP16, literal(-14)))
        CFI (cfiCond24) V0 load(1, XDATA, add(CFA_XSP16, literal(-13)))
        CFI (cfiCond24) V1 load(1, XDATA, add(CFA_XSP16, literal(-12)))
        CFI (cfiCond24) V2 load(1, XDATA, add(CFA_XSP16, literal(-11)))
        CFI (cfiCond24) V3 load(1, XDATA, add(CFA_XSP16, literal(-10)))
        CFI (cfiCond24) V4 load(1, XDATA, add(CFA_XSP16, literal(-9)))
        CFI (cfiCond24) V5 load(1, XDATA, add(CFA_XSP16, literal(-8)))
        CFI (cfiCond24) V6 load(1, XDATA, add(CFA_XSP16, literal(-7)))
        CFI (cfiCond24) R7 load(1, XDATA, add(CFA_XSP16, literal(-6)))
        CFI (cfiCond24) ?RET_LOW load(1, XDATA, add(CFA_XSP16, literal(-5)))
        CFI (cfiCond24) ?RET_HIGH load(1, XDATA, add(CFA_XSP16, literal(-4)))
        CFI (cfiCond24) ?BRET_EXT load(1, XDATA, add(CFA_XSP16, literal(-3)))
        CFI (cfiCond24) DPL0 load(1, XDATA, add(CFA_XSP16, literal(-2)))
        CFI (cfiCond24) DPH0 load(1, XDATA, add(CFA_XSP16, literal(-1)))
        CFI (cfiCond24) CFA_SP SP+0
        CFI (cfiCond24) CFA_XSP16 add(XSP16, 15)
        CFI Block cfiPicker25 Using cfiCommon1
        CFI (cfiPicker25) NoFunction
        CFI (cfiPicker25) Picker
        LCALL   ??I2C_Start_1?relay
        ; Setup parameters for call to function WriteI2CByte_1
        ; Setup parameters for call to function WriteI2CByte_1
        ; Setup parameters for call to function WriteI2CByte_1
        ; Setup parameters for call to function WriteI2CByte_1
        MOV     R1,#-0x50
        CFI EndBlock cfiCond21
        CFI EndBlock cfiCond22
        CFI EndBlock cfiCond23
        CFI EndBlock cfiCond24
        CFI EndBlock cfiPicker25
        REQUIRE ??Subroutine12_0
        ; // Fall through to label ??Subroutine12_0

        RSEG BANKED_CODE:CODE:NOROOT(0)
??Subroutine12_0:
        CFI Block cfiCond26 Using cfiCommon0
        CFI NoFunction
        CFI Conditional ??CrossCallReturnLabel_13, ??CrossCallReturnLabel_6
        CFI DPL0 Frame(CFA_SP, 4)
        CFI DPH0 Frame(CFA_SP, 5)
        CFI CFA_SP SP+-5
        CFI Block cfiCond27 Using cfiCommon0
        CFI (cfiCond27) NoFunction
        CFI (cfiCond27) Conditional ??CrossCallReturnLabel_13, ??CrossCallReturnLabel_7
        CFI (cfiCond27) DPL0 Frame(CFA_SP, 4)
        CFI (cfiCond27) DPH0 Frame(CFA_SP, 5)
        CFI (cfiCond27) CFA_SP SP+-5
        CFI Block cfiCond28 Using cfiCommon0
        CFI (cfiCond28) NoFunction
        CFI (cfiCond28) Conditional ??CrossCallReturnLabel_13, ??CrossCallReturnLabel_8
        CFI (cfiCond28) R6 load(1, XDATA, add(CFA_XSP16, literal(-15)))
        CFI (cfiCond28) VB load(1, XDATA, add(CFA_XSP16, literal(-14)))
        CFI (cfiCond28) V0 load(1, XDATA, add(CFA_XSP16, literal(-13)))
        CFI (cfiCond28) V1 load(1, XDATA, add(CFA_XSP16, literal(-12)))
        CFI (cfiCond28) V2 load(1, XDATA, add(CFA_XSP16, literal(-11)))
        CFI (cfiCond28) V3 load(1, XDATA, add(CFA_XSP16, literal(-10)))
        CFI (cfiCond28) V4 load(1, XDATA, add(CFA_XSP16, literal(-9)))
        CFI (cfiCond28) V5 load(1, XDATA, add(CFA_XSP16, literal(-8)))
        CFI (cfiCond28) V6 load(1, XDATA, add(CFA_XSP16, literal(-7)))
        CFI (cfiCond28) R7 load(1, XDATA, add(CFA_XSP16, literal(-6)))
        CFI (cfiCond28) ?RET_LOW load(1, XDATA, add(CFA_XSP16, literal(-5)))
        CFI (cfiCond28) ?RET_HIGH load(1, XDATA, add(CFA_XSP16, literal(-4)))
        CFI (cfiCond28) ?BRET_EXT load(1, XDATA, add(CFA_XSP16, literal(-3)))
        CFI (cfiCond28) DPL0 load(1, XDATA, add(CFA_XSP16, literal(-2)))
        CFI (cfiCond28) DPH0 load(1, XDATA, add(CFA_XSP16, literal(-1)))
        CFI (cfiCond28) CFA_SP SP+0
        CFI (cfiCond28) CFA_XSP16 add(XSP16, 15)
        CFI Block cfiCond29 Using cfiCommon0
        CFI (cfiCond29) NoFunction
        CFI (cfiCond29) Conditional ??CrossCallReturnLabel_14, ??CrossCallReturnLabel_4
        CFI (cfiCond29) DPL0 Frame(CFA_SP, 4)
        CFI (cfiCond29) DPH0 Frame(CFA_SP, 5)
        CFI (cfiCond29) CFA_SP SP+-5
        CFI Block cfiCond30 Using cfiCommon0
        CFI (cfiCond30) NoFunction
        CFI (cfiCond30) Conditional ??CrossCallReturnLabel_14, ??CrossCallReturnLabel_5
        CFI (cfiCond30) DPL0 Frame(CFA_SP, 4)
        CFI (cfiCond30) DPH0 Frame(CFA_SP, 5)
        CFI (cfiCond30) CFA_SP SP+-5
        CFI Block cfiCond31 Using cfiCommon0
        CFI (cfiCond31) NoFunction
        CFI (cfiCond31) Conditional ??CrossCallReturnLabel_15, ??CrossCallReturnLabel_0
        CFI (cfiCond31) DPL0 Frame(CFA_SP, 4)
        CFI (cfiCond31) DPH0 Frame(CFA_SP, 5)
        CFI (cfiCond31) CFA_SP SP+-5
        CFI Block cfiCond32 Using cfiCommon0
        CFI (cfiCond32) NoFunction
        CFI (cfiCond32) Conditional ??CrossCallReturnLabel_15, ??CrossCallReturnLabel_1
        CFI (cfiCond32) R6 load(1, XDATA, add(CFA_XSP16, literal(-15)))
        CFI (cfiCond32) VB load(1, XDATA, add(CFA_XSP16, literal(-14)))
        CFI (cfiCond32) V0 load(1, XDATA, add(CFA_XSP16, literal(-13)))
        CFI (cfiCond32) V1 load(1, XDATA, add(CFA_XSP16, literal(-12)))
        CFI (cfiCond32) V2 load(1, XDATA, add(CFA_XSP16, literal(-11)))
        CFI (cfiCond32) V3 load(1, XDATA, add(CFA_XSP16, literal(-10)))
        CFI (cfiCond32) V4 load(1, XDATA, add(CFA_XSP16, literal(-9)))
        CFI (cfiCond32) V5 load(1, XDATA, add(CFA_XSP16, literal(-8)))
        CFI (cfiCond32) V6 load(1, XDATA, add(CFA_XSP16, literal(-7)))
        CFI (cfiCond32) R7 load(1, XDATA, add(CFA_XSP16, literal(-6)))
        CFI (cfiCond32) ?RET_LOW load(1, XDATA, add(CFA_XSP16, literal(-5)))
        CFI (cfiCond32) ?RET_HIGH load(1, XDATA, add(CFA_XSP16, literal(-4)))
        CFI (cfiCond32) ?BRET_EXT load(1, XDATA, add(CFA_XSP16, literal(-3)))
        CFI (cfiCond32) DPL0 load(1, XDATA, add(CFA_XSP16, literal(-2)))
        CFI (cfiCond32) DPH0 load(1, XDATA, add(CFA_XSP16, literal(-1)))
        CFI (cfiCond32) CFA_SP SP+0
        CFI (cfiCond32) CFA_XSP16 add(XSP16, 15)
        CFI Block cfiCond33 Using cfiCommon0
        CFI (cfiCond33) NoFunction
        CFI (cfiCond33) Conditional ??CrossCallReturnLabel_16, ??CrossCallReturnLabel_0
        CFI (cfiCond33) DPL0 Frame(CFA_SP, 4)
        CFI (cfiCond33) DPH0 Frame(CFA_SP, 5)
        CFI (cfiCond33) CFA_SP SP+-5
        CFI Block cfiCond34 Using cfiCommon0
        CFI (cfiCond34) NoFunction
        CFI (cfiCond34) Conditional ??CrossCallReturnLabel_16, ??CrossCallReturnLabel_1
        CFI (cfiCond34) R6 load(1, XDATA, add(CFA_XSP16, literal(-15)))
        CFI (cfiCond34) VB load(1, XDATA, add(CFA_XSP16, literal(-14)))
        CFI (cfiCond34) V0 load(1, XDATA, add(CFA_XSP16, literal(-13)))
        CFI (cfiCond34) V1 load(1, XDATA, add(CFA_XSP16, literal(-12)))
        CFI (cfiCond34) V2 load(1, XDATA, add(CFA_XSP16, literal(-11)))
        CFI (cfiCond34) V3 load(1, XDATA, add(CFA_XSP16, literal(-10)))
        CFI (cfiCond34) V4 load(1, XDATA, add(CFA_XSP16, literal(-9)))
        CFI (cfiCond34) V5 load(1, XDATA, add(CFA_XSP16, literal(-8)))
        CFI (cfiCond34) V6 load(1, XDATA, add(CFA_XSP16, literal(-7)))
        CFI (cfiCond34) R7 load(1, XDATA, add(CFA_XSP16, literal(-6)))
        CFI (cfiCond34) ?RET_LOW load(1, XDATA, add(CFA_XSP16, literal(-5)))
        CFI (cfiCond34) ?RET_HIGH load(1, XDATA, add(CFA_XSP16, literal(-4)))
        CFI (cfiCond34) ?BRET_EXT load(1, XDATA, add(CFA_XSP16, literal(-3)))
        CFI (cfiCond34) DPL0 load(1, XDATA, add(CFA_XSP16, literal(-2)))
        CFI (cfiCond34) DPH0 load(1, XDATA, add(CFA_XSP16, literal(-1)))
        CFI (cfiCond34) CFA_SP SP+0
        CFI (cfiCond34) CFA_XSP16 add(XSP16, 15)
        CFI Block cfiCond35 Using cfiCommon0
        CFI (cfiCond35) NoFunction
        CFI (cfiCond35) Conditional ??CrossCallReturnLabel_11, ??CrossCallReturnLabel_2
        CFI (cfiCond35) DPL0 Frame(CFA_SP, 4)
        CFI (cfiCond35) DPH0 Frame(CFA_SP, 5)
        CFI (cfiCond35) CFA_SP SP+-5
        CFI Block cfiCond36 Using cfiCommon0
        CFI (cfiCond36) NoFunction
        CFI (cfiCond36) Conditional ??CrossCallReturnLabel_11, ??CrossCallReturnLabel_3
        CFI (cfiCond36) DPL0 Frame(CFA_SP, 4)
        CFI (cfiCond36) DPH0 Frame(CFA_SP, 5)
        CFI (cfiCond36) CFA_SP SP+-5
        CFI Block cfiCond37 Using cfiCommon0
        CFI (cfiCond37) NoFunction
        CFI (cfiCond37) Conditional ??CrossCallReturnLabel_12, ??CrossCallReturnLabel_0
        CFI (cfiCond37) DPL0 Frame(CFA_SP, 4)
        CFI (cfiCond37) DPH0 Frame(CFA_SP, 5)
        CFI (cfiCond37) CFA_SP SP+-5
        CFI Block cfiCond38 Using cfiCommon0
        CFI (cfiCond38) NoFunction
        CFI (cfiCond38) Conditional ??CrossCallReturnLabel_12, ??CrossCallReturnLabel_1
        CFI (cfiCond38) R6 load(1, XDATA, add(CFA_XSP16, literal(-15)))
        CFI (cfiCond38) VB load(1, XDATA, add(CFA_XSP16, literal(-14)))
        CFI (cfiCond38) V0 load(1, XDATA, add(CFA_XSP16, literal(-13)))
        CFI (cfiCond38) V1 load(1, XDATA, add(CFA_XSP16, literal(-12)))
        CFI (cfiCond38) V2 load(1, XDATA, add(CFA_XSP16, literal(-11)))
        CFI (cfiCond38) V3 load(1, XDATA, add(CFA_XSP16, literal(-10)))
        CFI (cfiCond38) V4 load(1, XDATA, add(CFA_XSP16, literal(-9)))
        CFI (cfiCond38) V5 load(1, XDATA, add(CFA_XSP16, literal(-8)))
        CFI (cfiCond38) V6 load(1, XDATA, add(CFA_XSP16, literal(-7)))
        CFI (cfiCond38) R7 load(1, XDATA, add(CFA_XSP16, literal(-6)))
        CFI (cfiCond38) ?RET_LOW load(1, XDATA, add(CFA_XSP16, literal(-5)))
        CFI (cfiCond38) ?RET_HIGH load(1, XDATA, add(CFA_XSP16, literal(-4)))
        CFI (cfiCond38) ?BRET_EXT load(1, XDATA, add(CFA_XSP16, literal(-3)))
        CFI (cfiCond38) DPL0 load(1, XDATA, add(CFA_XSP16, literal(-2)))
        CFI (cfiCond38) DPH0 load(1, XDATA, add(CFA_XSP16, literal(-1)))
        CFI (cfiCond38) CFA_SP SP+0
        CFI (cfiCond38) CFA_XSP16 add(XSP16, 15)
        CFI Block cfiPicker39 Using cfiCommon1
        CFI (cfiPicker39) NoFunction
        CFI (cfiPicker39) Picker
        LCALL   ??WriteI2CByte_1?relay
        ; Setup parameters for call to function Check_Acknowledge_1
        ; Setup parameters for call to function Check_Acknowledge_1
        ; Setup parameters for call to function Check_Acknowledge_1
        ; Setup parameters for call to function Check_Acknowledge_1
        ; Setup parameters for call to function Check_Acknowledge_1
        ; Setup parameters for call to function Check_Acknowledge_1
        ; Setup parameters for call to function Check_Acknowledge_1
        ; Setup parameters for call to function Check_Acknowledge_1
        ; Setup parameters for call to function Check_Acknowledge_1
        ; Setup parameters for call to function Check_Acknowledge_1
        ; Setup parameters for call to function Check_Acknowledge_1
        ; Setup parameters for call to function Check_Acknowledge_1
        ; Setup parameters for call to function Check_Acknowledge_1
        LCALL   ??Check_Acknowledge_1?relay
        RET
        CFI EndBlock cfiCond26
        CFI EndBlock cfiCond27
        CFI EndBlock cfiCond28
        CFI EndBlock cfiCond29
        CFI EndBlock cfiCond30
        CFI EndBlock cfiCond31
        CFI EndBlock cfiCond32
        CFI EndBlock cfiCond33
        CFI EndBlock cfiCond34
        CFI EndBlock cfiCond35
        CFI EndBlock cfiCond36
        CFI EndBlock cfiCond37
        CFI EndBlock cfiCond38
        CFI EndBlock cfiPicker39
//  161 
//  162 //读取CO2与TVOC浓度

        RSEG BANKED_CODE:CODE:NOROOT(0)
//  163 void Read_Air_Quality(unsigned int *co2, unsigned int *tvoc)
Read_Air_Quality:
        CFI Block cfiBlock40 Using cfiCommon0
        CFI Function Read_Air_Quality
        CODE
//  164 {
        FUNCALL Read_Air_Quality, I2C_Start_1
        LOCFRAME ISTACK, 0, STACK
        LOCFRAME PSTACK, 0, STACK
        LOCFRAME XSTACK, 15, STACK
        LOCFRAME IOVERLAY, 0, STATIC
        LOCFRAME DOVERLAY, 0, STATIC
        ARGFRAME ISTACK, 0, STACK
        ARGFRAME PSTACK, 0, STACK
        ARGFRAME XSTACK, 15, STACK
        ARGFRAME IOVERLAY, 0, STATIC
        ARGFRAME DOVERLAY, 0, STATIC
        FUNCALL Read_Air_Quality, WriteI2CByte_1
        LOCFRAME ISTACK, 0, STACK
        LOCFRAME PSTACK, 0, STACK
        LOCFRAME XSTACK, 15, STACK
        LOCFRAME IOVERLAY, 0, STATIC
        LOCFRAME DOVERLAY, 0, STATIC
        ARGFRAME ISTACK, 0, STACK
        ARGFRAME PSTACK, 0, STACK
        ARGFRAME XSTACK, 15, STACK
        ARGFRAME IOVERLAY, 0, STATIC
        ARGFRAME DOVERLAY, 0, STATIC
        FUNCALL Read_Air_Quality, Check_Acknowledge_1
        LOCFRAME ISTACK, 0, STACK
        LOCFRAME PSTACK, 0, STACK
        LOCFRAME XSTACK, 15, STACK
        LOCFRAME IOVERLAY, 0, STATIC
        LOCFRAME DOVERLAY, 0, STATIC
        ARGFRAME ISTACK, 0, STACK
        ARGFRAME PSTACK, 0, STACK
        ARGFRAME XSTACK, 15, STACK
        ARGFRAME IOVERLAY, 0, STATIC
        ARGFRAME DOVERLAY, 0, STATIC
        FUNCALL Read_Air_Quality, WriteI2CByte_1
        LOCFRAME ISTACK, 0, STACK
        LOCFRAME PSTACK, 0, STACK
        LOCFRAME XSTACK, 15, STACK
        LOCFRAME IOVERLAY, 0, STATIC
        LOCFRAME DOVERLAY, 0, STATIC
        ARGFRAME ISTACK, 0, STACK
        ARGFRAME PSTACK, 0, STACK
        ARGFRAME XSTACK, 15, STACK
        ARGFRAME IOVERLAY, 0, STATIC
        ARGFRAME DOVERLAY, 0, STATIC
        FUNCALL Read_Air_Quality, Check_Acknowledge_1
        LOCFRAME ISTACK, 0, STACK
        LOCFRAME PSTACK, 0, STACK
        LOCFRAME XSTACK, 15, STACK
        LOCFRAME IOVERLAY, 0, STATIC
        LOCFRAME DOVERLAY, 0, STATIC
        ARGFRAME ISTACK, 0, STACK
        ARGFRAME PSTACK, 0, STACK
        ARGFRAME XSTACK, 15, STACK
        ARGFRAME IOVERLAY, 0, STATIC
        ARGFRAME DOVERLAY, 0, STATIC
        FUNCALL Read_Air_Quality, WriteI2CByte_1
        LOCFRAME ISTACK, 0, STACK
        LOCFRAME PSTACK, 0, STACK
        LOCFRAME XSTACK, 15, STACK
        LOCFRAME IOVERLAY, 0, STATIC
        LOCFRAME DOVERLAY, 0, STATIC
        ARGFRAME ISTACK, 0, STACK
        ARGFRAME PSTACK, 0, STACK
        ARGFRAME XSTACK, 15, STACK
        ARGFRAME IOVERLAY, 0, STATIC
        ARGFRAME DOVERLAY, 0, STATIC
        FUNCALL Read_Air_Quality, Check_Acknowledge_1
        LOCFRAME ISTACK, 0, STACK
        LOCFRAME PSTACK, 0, STACK
        LOCFRAME XSTACK, 15, STACK
        LOCFRAME IOVERLAY, 0, STATIC
        LOCFRAME DOVERLAY, 0, STATIC
        ARGFRAME ISTACK, 0, STACK
        ARGFRAME PSTACK, 0, STACK
        ARGFRAME XSTACK, 15, STACK
        ARGFRAME IOVERLAY, 0, STATIC
        ARGFRAME DOVERLAY, 0, STATIC
        FUNCALL Read_Air_Quality, Delay_ms
        LOCFRAME ISTACK, 0, STACK
        LOCFRAME PSTACK, 0, STACK
        LOCFRAME XSTACK, 15, STACK
        LOCFRAME IOVERLAY, 0, STATIC
        LOCFRAME DOVERLAY, 0, STATIC
        ARGFRAME ISTACK, 0, STACK
        ARGFRAME PSTACK, 0, STACK
        ARGFRAME XSTACK, 15, STACK
        ARGFRAME IOVERLAY, 0, STATIC
        ARGFRAME DOVERLAY, 0, STATIC
        FUNCALL Read_Air_Quality, I2C_Start_1
        LOCFRAME ISTACK, 0, STACK
        LOCFRAME PSTACK, 0, STACK
        LOCFRAME XSTACK, 15, STACK
        LOCFRAME IOVERLAY, 0, STATIC
        LOCFRAME DOVERLAY, 0, STATIC
        ARGFRAME ISTACK, 0, STACK
        ARGFRAME PSTACK, 0, STACK
        ARGFRAME XSTACK, 15, STACK
        ARGFRAME IOVERLAY, 0, STATIC
        ARGFRAME DOVERLAY, 0, STATIC
        FUNCALL Read_Air_Quality, WriteI2CByte_1
        LOCFRAME ISTACK, 0, STACK
        LOCFRAME PSTACK, 0, STACK
        LOCFRAME XSTACK, 15, STACK
        LOCFRAME IOVERLAY, 0, STATIC
        LOCFRAME DOVERLAY, 0, STATIC
        ARGFRAME ISTACK, 0, STACK
        ARGFRAME PSTACK, 0, STACK
        ARGFRAME XSTACK, 15, STACK
        ARGFRAME IOVERLAY, 0, STATIC
        ARGFRAME DOVERLAY, 0, STATIC
        FUNCALL Read_Air_Quality, Check_Acknowledge_1
        LOCFRAME ISTACK, 0, STACK
        LOCFRAME PSTACK, 0, STACK
        LOCFRAME XSTACK, 15, STACK
        LOCFRAME IOVERLAY, 0, STATIC
        LOCFRAME DOVERLAY, 0, STATIC
        ARGFRAME ISTACK, 0, STACK
        ARGFRAME PSTACK, 0, STACK
        ARGFRAME XSTACK, 15, STACK
        ARGFRAME IOVERLAY, 0, STATIC
        ARGFRAME DOVERLAY, 0, STATIC
        FUNCALL Read_Air_Quality, ReadI2CByte_1
        LOCFRAME ISTACK, 0, STACK
        LOCFRAME PSTACK, 0, STACK
        LOCFRAME XSTACK, 15, STACK
        LOCFRAME IOVERLAY, 0, STATIC
        LOCFRAME DOVERLAY, 0, STATIC
        ARGFRAME ISTACK, 0, STACK
        ARGFRAME PSTACK, 0, STACK
        ARGFRAME XSTACK, 15, STACK
        ARGFRAME IOVERLAY, 0, STATIC
        ARGFRAME DOVERLAY, 0, STATIC
        FUNCALL Read_Air_Quality, ReadI2CByte_1
        LOCFRAME ISTACK, 0, STACK
        LOCFRAME PSTACK, 0, STACK
        LOCFRAME XSTACK, 15, STACK
        LOCFRAME IOVERLAY, 0, STATIC
        LOCFRAME DOVERLAY, 0, STATIC
        ARGFRAME ISTACK, 0, STACK
        ARGFRAME PSTACK, 0, STACK
        ARGFRAME XSTACK, 15, STACK
        ARGFRAME IOVERLAY, 0, STATIC
        ARGFRAME DOVERLAY, 0, STATIC
        FUNCALL Read_Air_Quality, ReadI2CByte_1
        LOCFRAME ISTACK, 0, STACK
        LOCFRAME PSTACK, 0, STACK
        LOCFRAME XSTACK, 15, STACK
        LOCFRAME IOVERLAY, 0, STATIC
        LOCFRAME DOVERLAY, 0, STATIC
        ARGFRAME ISTACK, 0, STACK
        ARGFRAME PSTACK, 0, STACK
        ARGFRAME XSTACK, 15, STACK
        ARGFRAME IOVERLAY, 0, STATIC
        ARGFRAME DOVERLAY, 0, STATIC
        FUNCALL Read_Air_Quality, ReadI2CByte_1
        LOCFRAME ISTACK, 0, STACK
        LOCFRAME PSTACK, 0, STACK
        LOCFRAME XSTACK, 15, STACK
        LOCFRAME IOVERLAY, 0, STATIC
        LOCFRAME DOVERLAY, 0, STATIC
        ARGFRAME ISTACK, 0, STACK
        ARGFRAME PSTACK, 0, STACK
        ARGFRAME XSTACK, 15, STACK
        ARGFRAME IOVERLAY, 0, STATIC
        ARGFRAME DOVERLAY, 0, STATIC
        FUNCALL Read_Air_Quality, ReadI2CByte_1
        LOCFRAME ISTACK, 0, STACK
        LOCFRAME PSTACK, 0, STACK
        LOCFRAME XSTACK, 15, STACK
        LOCFRAME IOVERLAY, 0, STATIC
        LOCFRAME DOVERLAY, 0, STATIC
        ARGFRAME ISTACK, 0, STACK
        ARGFRAME PSTACK, 0, STACK
        ARGFRAME XSTACK, 15, STACK
        ARGFRAME IOVERLAY, 0, STATIC
        ARGFRAME DOVERLAY, 0, STATIC
        FUNCALL Read_Air_Quality, ReadI2CByte_1
        LOCFRAME ISTACK, 0, STACK
        LOCFRAME PSTACK, 0, STACK
        LOCFRAME XSTACK, 15, STACK
        LOCFRAME IOVERLAY, 0, STATIC
        LOCFRAME DOVERLAY, 0, STATIC
        ARGFRAME ISTACK, 0, STACK
        ARGFRAME PSTACK, 0, STACK
        ARGFRAME XSTACK, 15, STACK
        ARGFRAME IOVERLAY, 0, STATIC
        ARGFRAME DOVERLAY, 0, STATIC
        FUNCALL Read_Air_Quality, I2C_Stop_1
        LOCFRAME ISTACK, 0, STACK
        LOCFRAME PSTACK, 0, STACK
        LOCFRAME XSTACK, 15, STACK
        LOCFRAME IOVERLAY, 0, STATIC
        LOCFRAME DOVERLAY, 0, STATIC
        ARGFRAME ISTACK, 0, STACK
        ARGFRAME PSTACK, 0, STACK
        ARGFRAME XSTACK, 15, STACK
        ARGFRAME IOVERLAY, 0, STATIC
        ARGFRAME DOVERLAY, 0, STATIC
        MOV     A,#-0xf
        LCALL   ?BANKED_ENTER_XDATA
        CFI DPH0 load(1, XDATA, add(CFA_XSP16, literal(-1)))
        CFI DPL0 load(1, XDATA, add(CFA_XSP16, literal(-2)))
        CFI ?BRET_EXT load(1, XDATA, add(CFA_XSP16, literal(-3)))
        CFI ?RET_HIGH load(1, XDATA, add(CFA_XSP16, literal(-4)))
        CFI ?RET_LOW load(1, XDATA, add(CFA_XSP16, literal(-5)))
        CFI R7 load(1, XDATA, add(CFA_XSP16, literal(-6)))
        CFI V6 load(1, XDATA, add(CFA_XSP16, literal(-7)))
        CFI V5 load(1, XDATA, add(CFA_XSP16, literal(-8)))
        CFI V4 load(1, XDATA, add(CFA_XSP16, literal(-9)))
        CFI V3 load(1, XDATA, add(CFA_XSP16, literal(-10)))
        CFI V2 load(1, XDATA, add(CFA_XSP16, literal(-11)))
        CFI V1 load(1, XDATA, add(CFA_XSP16, literal(-12)))
        CFI V0 load(1, XDATA, add(CFA_XSP16, literal(-13)))
        CFI VB load(1, XDATA, add(CFA_XSP16, literal(-14)))
        CFI R6 load(1, XDATA, add(CFA_XSP16, literal(-15)))
        CFI CFA_SP SP+0
        CFI CFA_XSP16 add(XSP16, 15)
        ; Saved register size: 15
        ; Auto size: 0
        MOV     A,R2
        MOV     R6,A
        MOV     A,R3
        MOV     R7,A
        MOV     ?V0 + 0,R4
        MOV     ?V0 + 1,R5
//  165 	unsigned char co2_high = 0;
//  166 	unsigned char co2_low = 0;
//  167 	unsigned char tvoc_high = 0;
//  168 	unsigned char tvoc_low = 0;
//  169 
//  170 	//发送Measure_air_quality命令
//  171 	I2C_Start_1();
        ; Setup parameters for call to function I2C_Start_1
        LCALL   ?Subroutine3 & 0xFFFF
//  172 	WriteI2CByte_1(0x58 << 1);
//  173 	Check_Acknowledge_1();
//  174 	WriteI2CByte_1(0x20);
//  175 	Check_Acknowledge_1();
//  176 	WriteI2CByte_1(0x08);
//  177 	Check_Acknowledge_1();
//  178 
//  179 	Delay_ms(50000); //需要时间间隔进行检测
??CrossCallReturnLabel_1:
        ; Setup parameters for call to function Delay_ms
        MOV     R2,#0x50
        MOV     R3,#-0x3d
        LCALL   ??Delay_ms?relay
//  180 
//  181 	//发送读地址并读取两个16位的浓度值及相应的8位CRC检查值
//  182 	I2C_Start_1();
        ; Setup parameters for call to function I2C_Start_1
        LCALL   ??I2C_Start_1?relay
//  183 	WriteI2CByte_1((0x58 << 1) | 0x01);
        ; Setup parameters for call to function WriteI2CByte_1
        MOV     R1,#-0x4f
        LCALL   ?Subroutine8 & 0xFFFF
//  184 	Check_Acknowledge_1();
//  185 	co2_high = ReadI2CByte_1();
??CrossCallReturnLabel_8:
        ; Setup parameters for call to function ReadI2CByte_1
        LCALL   ??ReadI2CByte_1?relay
        MOV     A,R1
        MOV     ?V0 + 3,A
//  186 	co2_low = ReadI2CByte_1();
        ; Setup parameters for call to function ReadI2CByte_1
        LCALL   ??ReadI2CByte_1?relay
        MOV     A,R1
        MOV     ?V0 + 4,A
//  187 	ReadI2CByte_1();
        ; Setup parameters for call to function ReadI2CByte_1
        LCALL   ??ReadI2CByte_1?relay
//  188 	tvoc_high = ReadI2CByte_1();
        ; Setup parameters for call to function ReadI2CByte_1
        LCALL   ??ReadI2CByte_1?relay
        MOV     A,R1
        MOV     ?V0 + 6,A
//  189 	tvoc_low = ReadI2CByte_1();
        ; Setup parameters for call to function ReadI2CByte_1
        LCALL   ??ReadI2CByte_1?relay
        MOV     A,R1
        MOV     ?V0 + 2,A
//  190 	ReadI2CByte_1();
        ; Setup parameters for call to function ReadI2CByte_1
        LCALL   ??ReadI2CByte_1?relay
//  191 	I2C_Stop_1();
        ; Setup parameters for call to function I2C_Stop_1
        LCALL   ??I2C_Stop_1?relay
//  192 
//  193 	*co2 = (co2_high << 8) | co2_low;
        MOV     A,?V0 + 4
        MOV     DPL,R6
        MOV     DPH,R7
        MOVX    @DPTR,A
        INC     DPTR
        MOV     A,?V0 + 3
        MOVX    @DPTR,A
//  194 	*tvoc = (tvoc_high << 8) | tvoc_low;
        MOV     A,?V0 + 2
        MOV     DPL,?V0 + 0
        MOV     DPH,?V0 + 1
        MOVX    @DPTR,A
        INC     DPTR
        MOV     A,?V0 + 6
        MOVX    @DPTR,A
//  195 }
        MOV     R7,#0x7
        LJMP    ?BANKED_LEAVE_XDATA
        CFI EndBlock cfiBlock40

        RSEG BANKED_CODE:CODE:NOROOT(0)
?Subroutine3:
        CFI Block cfiCond41 Using cfiCommon0
        CFI NoFunction
        CFI Conditional ??CrossCallReturnLabel_0
        CFI DPL0 Frame(CFA_SP, 4)
        CFI DPH0 Frame(CFA_SP, 5)
        CFI CFA_SP SP+-5
        CFI Block cfiCond42 Using cfiCommon0
        CFI (cfiCond42) NoFunction
        CFI (cfiCond42) Conditional ??CrossCallReturnLabel_1
        CFI (cfiCond42) R6 load(1, XDATA, add(CFA_XSP16, literal(-15)))
        CFI (cfiCond42) VB load(1, XDATA, add(CFA_XSP16, literal(-14)))
        CFI (cfiCond42) V0 load(1, XDATA, add(CFA_XSP16, literal(-13)))
        CFI (cfiCond42) V1 load(1, XDATA, add(CFA_XSP16, literal(-12)))
        CFI (cfiCond42) V2 load(1, XDATA, add(CFA_XSP16, literal(-11)))
        CFI (cfiCond42) V3 load(1, XDATA, add(CFA_XSP16, literal(-10)))
        CFI (cfiCond42) V4 load(1, XDATA, add(CFA_XSP16, literal(-9)))
        CFI (cfiCond42) V5 load(1, XDATA, add(CFA_XSP16, literal(-8)))
        CFI (cfiCond42) V6 load(1, XDATA, add(CFA_XSP16, literal(-7)))
        CFI (cfiCond42) R7 load(1, XDATA, add(CFA_XSP16, literal(-6)))
        CFI (cfiCond42) ?RET_LOW load(1, XDATA, add(CFA_XSP16, literal(-5)))
        CFI (cfiCond42) ?RET_HIGH load(1, XDATA, add(CFA_XSP16, literal(-4)))
        CFI (cfiCond42) ?BRET_EXT load(1, XDATA, add(CFA_XSP16, literal(-3)))
        CFI (cfiCond42) DPL0 load(1, XDATA, add(CFA_XSP16, literal(-2)))
        CFI (cfiCond42) DPH0 load(1, XDATA, add(CFA_XSP16, literal(-1)))
        CFI (cfiCond42) CFA_SP SP+0
        CFI (cfiCond42) CFA_XSP16 add(XSP16, 15)
        CFI Block cfiPicker43 Using cfiCommon1
        CFI (cfiPicker43) NoFunction
        CFI (cfiPicker43) Picker
        LCALL   ?Subroutine9 & 0xFFFF
??CrossCallReturnLabel_12:
        ; Setup parameters for call to function WriteI2CByte_1
        ; Setup parameters for call to function WriteI2CByte_1
        MOV     R1,#0x20
        LCALL   ??Subroutine12_0 & 0xFFFF
??CrossCallReturnLabel_15:
        ; Setup parameters for call to function WriteI2CByte_1
        ; Setup parameters for call to function WriteI2CByte_1
        MOV     R1,#0x8
        LCALL   ??Subroutine12_0 & 0xFFFF
??CrossCallReturnLabel_16:
        RET
        CFI EndBlock cfiCond41
        CFI EndBlock cfiCond42
        CFI EndBlock cfiPicker43
//  196 
//  197 //产生IIC起始信号

        RSEG BANKED_CODE:CODE:NOROOT(0)
//  198 void WriteSDA1(void)
WriteSDA1:
        CFI Block cfiBlock44 Using cfiCommon0
        CFI Function WriteSDA1
        CODE
//  199 {
        ; Saved register size: 0
        ; Auto size: 0
//  200 	P0DIR |= 0x20;
        ORL     0xfd,#0x20
//  201 	SDA = 1;
        SETB    0x80.5
//  202 }
        LJMP    ?BRET
        CFI EndBlock cfiBlock44
        REQUIRE P0DIR
        REQUIRE _A_P0
//  203 

        RSEG BANKED_CODE:CODE:NOROOT(0)
//  204 void WriteSDA0(void)
WriteSDA0:
        CFI Block cfiBlock45 Using cfiCommon0
        CFI Function WriteSDA0
        CODE
//  205 {
        ; Saved register size: 0
        ; Auto size: 0
//  206 	P0DIR |= 0x20;
        ORL     0xfd,#0x20
//  207 	SDA = 0;
        CLR     0x80.5
//  208 }
        LJMP    ?BRET
        CFI EndBlock cfiBlock45
        REQUIRE P0DIR
        REQUIRE _A_P0
//  209 

        RSEG BANKED_CODE:CODE:NOROOT(0)
//  210 void WriteSCL1(void)
WriteSCL1:
        CFI Block cfiBlock46 Using cfiCommon0
        CFI Function WriteSCL1
        CODE
//  211 {
        ; Saved register size: 0
        ; Auto size: 0
//  212 	P0DIR |= 0x40;
        ORL     0xfd,#0x40
//  213 	SCL = 1;
        SETB    0x80.6
//  214 }
        LJMP    ?BRET
        CFI EndBlock cfiBlock46
        REQUIRE P0DIR
        REQUIRE _A_P0
//  215 

        RSEG BANKED_CODE:CODE:NOROOT(0)
//  216 void WriteSCL0(void)
WriteSCL0:
        CFI Block cfiBlock47 Using cfiCommon0
        CFI Function WriteSCL0
        CODE
//  217 {
        ; Saved register size: 0
        ; Auto size: 0
//  218 	P0DIR |= 0x40;
        ORL     0xfd,#0x40
//  219 	SCL = 0;
        CLR     0x80.6
//  220 }
        LJMP    ?BRET
        CFI EndBlock cfiBlock47
        REQUIRE P0DIR
        REQUIRE _A_P0
//  221 

        RSEG BANKED_CODE:CODE:NOROOT(0)
//  222 void ReadSDA(void)
ReadSDA:
        CFI Block cfiBlock48 Using cfiCommon0
        CFI Function ReadSDA
        CODE
//  223 {
        ; Saved register size: 0
        ; Auto size: 0
//  224 	P0DIR &= 0xDF;
        ANL     0xfd,#0xdf
//  225 }
        LJMP    ?BRET
        CFI EndBlock cfiBlock48
        REQUIRE P0DIR
//  226 
//  227 /*启动I2C总线的函数，当SCL为高电平时使SDA产生一个负跳变*/

        RSEG BANKED_CODE:CODE:NOROOT(0)
//  228 void I2C_Start_1(void)
I2C_Start_1:
        CFI Block cfiBlock49 Using cfiCommon0
        CFI Function I2C_Start_1
        CODE
//  229 {
        FUNCALL I2C_Start_1, WriteSDA1
        LOCFRAME ISTACK, 2, STACK
        LOCFRAME PSTACK, 0, STACK
        LOCFRAME XSTACK, 0, STACK
        LOCFRAME IOVERLAY, 0, STATIC
        LOCFRAME DOVERLAY, 0, STATIC
        ARGFRAME ISTACK, 2, STACK
        ARGFRAME PSTACK, 0, STACK
        ARGFRAME XSTACK, 0, STACK
        ARGFRAME IOVERLAY, 0, STATIC
        ARGFRAME DOVERLAY, 0, STATIC
        FUNCALL I2C_Start_1, WriteSCL1
        LOCFRAME ISTACK, 2, STACK
        LOCFRAME PSTACK, 0, STACK
        LOCFRAME XSTACK, 0, STACK
        LOCFRAME IOVERLAY, 0, STATIC
        LOCFRAME DOVERLAY, 0, STATIC
        ARGFRAME ISTACK, 2, STACK
        ARGFRAME PSTACK, 0, STACK
        ARGFRAME XSTACK, 0, STACK
        ARGFRAME IOVERLAY, 0, STATIC
        ARGFRAME DOVERLAY, 0, STATIC
        FUNCALL I2C_Start_1, Delay_1u
        LOCFRAME ISTACK, 2, STACK
        LOCFRAME PSTACK, 0, STACK
        LOCFRAME XSTACK, 0, STACK
        LOCFRAME IOVERLAY, 0, STATIC
        LOCFRAME DOVERLAY, 0, STATIC
        ARGFRAME ISTACK, 2, STACK
        ARGFRAME PSTACK, 0, STACK
        ARGFRAME XSTACK, 0, STACK
        ARGFRAME IOVERLAY, 0, STATIC
        ARGFRAME DOVERLAY, 0, STATIC
        FUNCALL I2C_Start_1, WriteSDA0
        LOCFRAME ISTACK, 2, STACK
        LOCFRAME PSTACK, 0, STACK
        LOCFRAME XSTACK, 0, STACK
        LOCFRAME IOVERLAY, 0, STATIC
        LOCFRAME DOVERLAY, 0, STATIC
        ARGFRAME ISTACK, 2, STACK
        ARGFRAME PSTACK, 0, STACK
        ARGFRAME XSTACK, 0, STACK
        ARGFRAME IOVERLAY, 0, STATIC
        ARGFRAME DOVERLAY, 0, STATIC
        FUNCALL I2C_Start_1, Delay_1u
        LOCFRAME ISTACK, 2, STACK
        LOCFRAME PSTACK, 0, STACK
        LOCFRAME XSTACK, 0, STACK
        LOCFRAME IOVERLAY, 0, STATIC
        LOCFRAME DOVERLAY, 0, STATIC
        ARGFRAME ISTACK, 2, STACK
        ARGFRAME PSTACK, 0, STACK
        ARGFRAME XSTACK, 0, STACK
        ARGFRAME IOVERLAY, 0, STATIC
        ARGFRAME DOVERLAY, 0, STATIC
        FUNCALL I2C_Start_1, WriteSCL0
        LOCFRAME ISTACK, 2, STACK
        LOCFRAME PSTACK, 0, STACK
        LOCFRAME XSTACK, 0, STACK
        LOCFRAME IOVERLAY, 0, STATIC
        LOCFRAME DOVERLAY, 0, STATIC
        ARGFRAME ISTACK, 2, STACK
        ARGFRAME PSTACK, 0, STACK
        ARGFRAME XSTACK, 0, STACK
        ARGFRAME IOVERLAY, 0, STATIC
        ARGFRAME DOVERLAY, 0, STATIC
        FUNCALL I2C_Start_1, Delay_1u
        LOCFRAME ISTACK, 2, STACK
        LOCFRAME PSTACK, 0, STACK
        LOCFRAME XSTACK, 0, STACK
        LOCFRAME IOVERLAY, 0, STATIC
        LOCFRAME DOVERLAY, 0, STATIC
        ARGFRAME ISTACK, 2, STACK
        ARGFRAME PSTACK, 0, STACK
        ARGFRAME XSTACK, 0, STACK
        ARGFRAME IOVERLAY, 0, STATIC
        ARGFRAME DOVERLAY, 0, STATIC
        PUSH    DPL
        CFI DPL0 Frame(CFA_SP, 4)
        CFI CFA_SP SP+-4
        PUSH    DPH
        CFI DPH0 Frame(CFA_SP, 5)
        CFI CFA_SP SP+-5
        ; Saved register size: 2
        ; Auto size: 0
//  230 	WriteSDA1();
        ; Setup parameters for call to function WriteSDA1
        LCALL   ??WriteSDA1?relay
//  231 	WriteSCL1();
        ; Setup parameters for call to function WriteSCL1
        LCALL   ??Subroutine13_0 & 0xFFFF
//  232 	Delay_1u(50);
//  233 	WriteSDA0();
??CrossCallReturnLabel_19:
        ; Setup parameters for call to function WriteSDA0
        LCALL   ??WriteSDA0?relay
//  234 	Delay_1u(50);
        ; Setup parameters for call to function Delay_1u
        LJMP    ??Subroutine10_0 & 0xFFFF
        CFI EndBlock cfiBlock49
//  235 	WriteSCL0();
//  236 	Delay_1u(50);
//  237 }
//  238 
//  239 /*终止I2C总线，当SCL为高电平时使SDA产生一个正跳变*/

        RSEG BANKED_CODE:CODE:NOROOT(0)
//  240 void I2C_Stop_1(void)
I2C_Stop_1:
        CFI Block cfiBlock50 Using cfiCommon0
        CFI Function I2C_Stop_1
        CODE
//  241 {
        FUNCALL I2C_Stop_1, WriteSDA0
        LOCFRAME ISTACK, 2, STACK
        LOCFRAME PSTACK, 0, STACK
        LOCFRAME XSTACK, 0, STACK
        LOCFRAME IOVERLAY, 0, STATIC
        LOCFRAME DOVERLAY, 0, STATIC
        ARGFRAME ISTACK, 2, STACK
        ARGFRAME PSTACK, 0, STACK
        ARGFRAME XSTACK, 0, STACK
        ARGFRAME IOVERLAY, 0, STATIC
        ARGFRAME DOVERLAY, 0, STATIC
        FUNCALL I2C_Stop_1, Delay_1u
        LOCFRAME ISTACK, 2, STACK
        LOCFRAME PSTACK, 0, STACK
        LOCFRAME XSTACK, 0, STACK
        LOCFRAME IOVERLAY, 0, STATIC
        LOCFRAME DOVERLAY, 0, STATIC
        ARGFRAME ISTACK, 2, STACK
        ARGFRAME PSTACK, 0, STACK
        ARGFRAME XSTACK, 0, STACK
        ARGFRAME IOVERLAY, 0, STATIC
        ARGFRAME DOVERLAY, 0, STATIC
        FUNCALL I2C_Stop_1, WriteSCL1
        LOCFRAME ISTACK, 2, STACK
        LOCFRAME PSTACK, 0, STACK
        LOCFRAME XSTACK, 0, STACK
        LOCFRAME IOVERLAY, 0, STATIC
        LOCFRAME DOVERLAY, 0, STATIC
        ARGFRAME ISTACK, 2, STACK
        ARGFRAME PSTACK, 0, STACK
        ARGFRAME XSTACK, 0, STACK
        ARGFRAME IOVERLAY, 0, STATIC
        ARGFRAME DOVERLAY, 0, STATIC
        FUNCALL I2C_Stop_1, Delay_1u
        LOCFRAME ISTACK, 2, STACK
        LOCFRAME PSTACK, 0, STACK
        LOCFRAME XSTACK, 0, STACK
        LOCFRAME IOVERLAY, 0, STATIC
        LOCFRAME DOVERLAY, 0, STATIC
        ARGFRAME ISTACK, 2, STACK
        ARGFRAME PSTACK, 0, STACK
        ARGFRAME XSTACK, 0, STACK
        ARGFRAME IOVERLAY, 0, STATIC
        ARGFRAME DOVERLAY, 0, STATIC
        FUNCALL I2C_Stop_1, WriteSDA1
        LOCFRAME ISTACK, 2, STACK
        LOCFRAME PSTACK, 0, STACK
        LOCFRAME XSTACK, 0, STACK
        LOCFRAME IOVERLAY, 0, STATIC
        LOCFRAME DOVERLAY, 0, STATIC
        ARGFRAME ISTACK, 2, STACK
        ARGFRAME PSTACK, 0, STACK
        ARGFRAME XSTACK, 0, STACK
        ARGFRAME IOVERLAY, 0, STATIC
        ARGFRAME DOVERLAY, 0, STATIC
        FUNCALL I2C_Stop_1, Delay_1u
        LOCFRAME ISTACK, 2, STACK
        LOCFRAME PSTACK, 0, STACK
        LOCFRAME XSTACK, 0, STACK
        LOCFRAME IOVERLAY, 0, STATIC
        LOCFRAME DOVERLAY, 0, STATIC
        ARGFRAME ISTACK, 2, STACK
        ARGFRAME PSTACK, 0, STACK
        ARGFRAME XSTACK, 0, STACK
        ARGFRAME IOVERLAY, 0, STATIC
        ARGFRAME DOVERLAY, 0, STATIC
        FUNCALL I2C_Stop_1, WriteSCL0
        LOCFRAME ISTACK, 2, STACK
        LOCFRAME PSTACK, 0, STACK
        LOCFRAME XSTACK, 0, STACK
        LOCFRAME IOVERLAY, 0, STATIC
        LOCFRAME DOVERLAY, 0, STATIC
        ARGFRAME ISTACK, 2, STACK
        ARGFRAME PSTACK, 0, STACK
        ARGFRAME XSTACK, 0, STACK
        ARGFRAME IOVERLAY, 0, STATIC
        ARGFRAME DOVERLAY, 0, STATIC
        FUNCALL I2C_Stop_1, Delay_1u
        LOCFRAME ISTACK, 2, STACK
        LOCFRAME PSTACK, 0, STACK
        LOCFRAME XSTACK, 0, STACK
        LOCFRAME IOVERLAY, 0, STATIC
        LOCFRAME DOVERLAY, 0, STATIC
        ARGFRAME ISTACK, 2, STACK
        ARGFRAME PSTACK, 0, STACK
        ARGFRAME XSTACK, 0, STACK
        ARGFRAME IOVERLAY, 0, STATIC
        ARGFRAME DOVERLAY, 0, STATIC
        PUSH    DPL
        CFI DPL0 Frame(CFA_SP, 4)
        CFI CFA_SP SP+-4
        PUSH    DPH
        CFI DPH0 Frame(CFA_SP, 5)
        CFI CFA_SP SP+-5
        ; Saved register size: 2
        ; Auto size: 0
//  242 	WriteSDA0();
        ; Setup parameters for call to function WriteSDA0
        LCALL   ??WriteSDA0?relay
//  243 	Delay_1u(50);
        ; Setup parameters for call to function Delay_1u
        LCALL   ?Subroutine4 & 0xFFFF
//  244 	WriteSCL1();
//  245 	Delay_1u(50);
//  246 	WriteSDA1();
??CrossCallReturnLabel_17:
        ; Setup parameters for call to function WriteSDA1
        LCALL   ??WriteSDA1?relay
//  247 	Delay_1u(50);
        ; Setup parameters for call to function Delay_1u
        LJMP    ??Subroutine10_0 & 0xFFFF
        CFI EndBlock cfiBlock50
//  248 	WriteSCL0();
//  249 	Delay_1u(50);
//  250 }

        RSEG BANKED_CODE:CODE:NOROOT(0)
?Subroutine4:
        CFI Block cfiCond51 Using cfiCommon0
        CFI NoFunction
        CFI Conditional ??CrossCallReturnLabel_17
        CFI DPL0 Frame(CFA_SP, 4)
        CFI DPH0 Frame(CFA_SP, 5)
        CFI CFA_SP SP+-5
        CFI Block cfiCond52 Using cfiCommon0
        CFI (cfiCond52) NoFunction
        CFI (cfiCond52) Conditional ??CrossCallReturnLabel_18
        CFI (cfiCond52) R6 load(1, XDATA, add(CFA_XSP16, literal(-9)))
        CFI (cfiCond52) VB load(1, XDATA, add(CFA_XSP16, literal(-8)))
        CFI (cfiCond52) V0 load(1, XDATA, add(CFA_XSP16, literal(-7)))
        CFI (cfiCond52) R7 load(1, XDATA, add(CFA_XSP16, literal(-6)))
        CFI (cfiCond52) ?RET_LOW load(1, XDATA, add(CFA_XSP16, literal(-5)))
        CFI (cfiCond52) ?RET_HIGH load(1, XDATA, add(CFA_XSP16, literal(-4)))
        CFI (cfiCond52) ?BRET_EXT load(1, XDATA, add(CFA_XSP16, literal(-3)))
        CFI (cfiCond52) DPL0 load(1, XDATA, add(CFA_XSP16, literal(-2)))
        CFI (cfiCond52) DPH0 load(1, XDATA, add(CFA_XSP16, literal(-1)))
        CFI (cfiCond52) CFA_SP SP+0
        CFI (cfiCond52) CFA_XSP16 add(XSP16, 9)
        CFI Block cfiPicker53 Using cfiCommon1
        CFI (cfiPicker53) NoFunction
        CFI (cfiPicker53) Picker
        MOV     R2,#0x32
        MOV     R3,#0x0
        LCALL   ??Delay_1u?relay
        CFI EndBlock cfiCond51
        CFI EndBlock cfiCond52
        CFI EndBlock cfiPicker53
        ; Setup parameters for call to function WriteSCL1
        ; Setup parameters for call to function WriteSCL1
        REQUIRE ??Subroutine13_0
        ; // Fall through to label ??Subroutine13_0

        RSEG BANKED_CODE:CODE:NOROOT(0)
??Subroutine13_0:
        CFI Block cfiCond54 Using cfiCommon0
        CFI NoFunction
        CFI Conditional ??CrossCallReturnLabel_19
        CFI DPL0 Frame(CFA_SP, 4)
        CFI DPH0 Frame(CFA_SP, 5)
        CFI CFA_SP SP+-5
        CFI Block cfiCond55 Using cfiCommon0
        CFI (cfiCond55) NoFunction
        CFI (cfiCond55) Conditional ??CrossCallReturnLabel_20
        CFI (cfiCond55) DPL0 Frame(CFA_SP, 4)
        CFI (cfiCond55) DPH0 Frame(CFA_SP, 5)
        CFI (cfiCond55) CFA_SP SP+-5
        CFI Block cfiCond56 Using cfiCommon0
        CFI (cfiCond56) NoFunction
        CFI (cfiCond56) Conditional ??CrossCallReturnLabel_17
        CFI (cfiCond56) DPL0 Frame(CFA_SP, 4)
        CFI (cfiCond56) DPH0 Frame(CFA_SP, 5)
        CFI (cfiCond56) CFA_SP SP+-5
        CFI Block cfiCond57 Using cfiCommon0
        CFI (cfiCond57) NoFunction
        CFI (cfiCond57) Conditional ??CrossCallReturnLabel_18
        CFI (cfiCond57) R6 load(1, XDATA, add(CFA_XSP16, literal(-9)))
        CFI (cfiCond57) VB load(1, XDATA, add(CFA_XSP16, literal(-8)))
        CFI (cfiCond57) V0 load(1, XDATA, add(CFA_XSP16, literal(-7)))
        CFI (cfiCond57) R7 load(1, XDATA, add(CFA_XSP16, literal(-6)))
        CFI (cfiCond57) ?RET_LOW load(1, XDATA, add(CFA_XSP16, literal(-5)))
        CFI (cfiCond57) ?RET_HIGH load(1, XDATA, add(CFA_XSP16, literal(-4)))
        CFI (cfiCond57) ?BRET_EXT load(1, XDATA, add(CFA_XSP16, literal(-3)))
        CFI (cfiCond57) DPL0 load(1, XDATA, add(CFA_XSP16, literal(-2)))
        CFI (cfiCond57) DPH0 load(1, XDATA, add(CFA_XSP16, literal(-1)))
        CFI (cfiCond57) CFA_SP SP+0
        CFI (cfiCond57) CFA_XSP16 add(XSP16, 9)
        CFI Block cfiPicker58 Using cfiCommon1
        CFI (cfiPicker58) NoFunction
        CFI (cfiPicker58) Picker
        LCALL   ??WriteSCL1?relay
        ; Setup parameters for call to function Delay_1u
        ; Setup parameters for call to function Delay_1u
        ; Setup parameters for call to function Delay_1u
        ; Setup parameters for call to function Delay_1u
        MOV     R2,#0x32
        MOV     R3,#0x0
        LCALL   ??Delay_1u?relay
        RET
        CFI EndBlock cfiCond54
        CFI EndBlock cfiCond55
        CFI EndBlock cfiCond56
        CFI EndBlock cfiCond57
        CFI EndBlock cfiPicker58
//  251 
//  252 /*发送0，在SCL为高电平时使SDA信号为低*/

        RSEG BANKED_CODE:CODE:NOROOT(0)
//  253 void SEND_0_1(void) /* SEND ACK */
SEND_0_1:
        CFI Block cfiBlock59 Using cfiCommon0
        CFI Function SEND_0_1
        CODE
//  254 {
        FUNCALL SEND_0_1, WriteSDA0
        LOCFRAME ISTACK, 2, STACK
        LOCFRAME PSTACK, 0, STACK
        LOCFRAME XSTACK, 0, STACK
        LOCFRAME IOVERLAY, 0, STATIC
        LOCFRAME DOVERLAY, 0, STATIC
        ARGFRAME ISTACK, 2, STACK
        ARGFRAME PSTACK, 0, STACK
        ARGFRAME XSTACK, 0, STACK
        ARGFRAME IOVERLAY, 0, STATIC
        ARGFRAME DOVERLAY, 0, STATIC
        FUNCALL SEND_0_1, WriteSCL1
        LOCFRAME ISTACK, 2, STACK
        LOCFRAME PSTACK, 0, STACK
        LOCFRAME XSTACK, 0, STACK
        LOCFRAME IOVERLAY, 0, STATIC
        LOCFRAME DOVERLAY, 0, STATIC
        ARGFRAME ISTACK, 2, STACK
        ARGFRAME PSTACK, 0, STACK
        ARGFRAME XSTACK, 0, STACK
        ARGFRAME IOVERLAY, 0, STATIC
        ARGFRAME DOVERLAY, 0, STATIC
        FUNCALL SEND_0_1, Delay_1u
        LOCFRAME ISTACK, 2, STACK
        LOCFRAME PSTACK, 0, STACK
        LOCFRAME XSTACK, 0, STACK
        LOCFRAME IOVERLAY, 0, STATIC
        LOCFRAME DOVERLAY, 0, STATIC
        ARGFRAME ISTACK, 2, STACK
        ARGFRAME PSTACK, 0, STACK
        ARGFRAME XSTACK, 0, STACK
        ARGFRAME IOVERLAY, 0, STATIC
        ARGFRAME DOVERLAY, 0, STATIC
        FUNCALL SEND_0_1, WriteSCL0
        LOCFRAME ISTACK, 2, STACK
        LOCFRAME PSTACK, 0, STACK
        LOCFRAME XSTACK, 0, STACK
        LOCFRAME IOVERLAY, 0, STATIC
        LOCFRAME DOVERLAY, 0, STATIC
        ARGFRAME ISTACK, 2, STACK
        ARGFRAME PSTACK, 0, STACK
        ARGFRAME XSTACK, 0, STACK
        ARGFRAME IOVERLAY, 0, STATIC
        ARGFRAME DOVERLAY, 0, STATIC
        FUNCALL SEND_0_1, Delay_1u
        LOCFRAME ISTACK, 2, STACK
        LOCFRAME PSTACK, 0, STACK
        LOCFRAME XSTACK, 0, STACK
        LOCFRAME IOVERLAY, 0, STATIC
        LOCFRAME DOVERLAY, 0, STATIC
        ARGFRAME ISTACK, 2, STACK
        ARGFRAME PSTACK, 0, STACK
        ARGFRAME XSTACK, 0, STACK
        ARGFRAME IOVERLAY, 0, STATIC
        ARGFRAME DOVERLAY, 0, STATIC
        PUSH    DPL
        CFI DPL0 Frame(CFA_SP, 4)
        CFI CFA_SP SP+-4
        PUSH    DPH
        CFI DPH0 Frame(CFA_SP, 5)
        CFI CFA_SP SP+-5
        ; Saved register size: 2
        ; Auto size: 0
//  255 	WriteSDA0();
        ; Setup parameters for call to function WriteSDA0
        LCALL   ??WriteSDA0?relay
//  256 	WriteSCL1();
        ; Setup parameters for call to function WriteSCL1
        LJMP    ?Subroutine0 & 0xFFFF
        CFI EndBlock cfiBlock59
//  257 	Delay_1u(50);
//  258 	WriteSCL0();
//  259 	Delay_1u(50);
//  260 }
//  261 
//  262 /*发送1，在SCL为高电平时使SDA信号为高*/

        RSEG BANKED_CODE:CODE:NOROOT(0)
//  263 void SEND_1_1(void)
SEND_1_1:
        CFI Block cfiBlock60 Using cfiCommon0
        CFI Function SEND_1_1
        CODE
//  264 {
        FUNCALL SEND_1_1, WriteSDA1
        LOCFRAME ISTACK, 2, STACK
        LOCFRAME PSTACK, 0, STACK
        LOCFRAME XSTACK, 0, STACK
        LOCFRAME IOVERLAY, 0, STATIC
        LOCFRAME DOVERLAY, 0, STATIC
        ARGFRAME ISTACK, 2, STACK
        ARGFRAME PSTACK, 0, STACK
        ARGFRAME XSTACK, 0, STACK
        ARGFRAME IOVERLAY, 0, STATIC
        ARGFRAME DOVERLAY, 0, STATIC
        FUNCALL SEND_1_1, WriteSCL1
        LOCFRAME ISTACK, 2, STACK
        LOCFRAME PSTACK, 0, STACK
        LOCFRAME XSTACK, 0, STACK
        LOCFRAME IOVERLAY, 0, STATIC
        LOCFRAME DOVERLAY, 0, STATIC
        ARGFRAME ISTACK, 2, STACK
        ARGFRAME PSTACK, 0, STACK
        ARGFRAME XSTACK, 0, STACK
        ARGFRAME IOVERLAY, 0, STATIC
        ARGFRAME DOVERLAY, 0, STATIC
        FUNCALL SEND_1_1, Delay_1u
        LOCFRAME ISTACK, 2, STACK
        LOCFRAME PSTACK, 0, STACK
        LOCFRAME XSTACK, 0, STACK
        LOCFRAME IOVERLAY, 0, STATIC
        LOCFRAME DOVERLAY, 0, STATIC
        ARGFRAME ISTACK, 2, STACK
        ARGFRAME PSTACK, 0, STACK
        ARGFRAME XSTACK, 0, STACK
        ARGFRAME IOVERLAY, 0, STATIC
        ARGFRAME DOVERLAY, 0, STATIC
        FUNCALL SEND_1_1, WriteSCL0
        LOCFRAME ISTACK, 2, STACK
        LOCFRAME PSTACK, 0, STACK
        LOCFRAME XSTACK, 0, STACK
        LOCFRAME IOVERLAY, 0, STATIC
        LOCFRAME DOVERLAY, 0, STATIC
        ARGFRAME ISTACK, 2, STACK
        ARGFRAME PSTACK, 0, STACK
        ARGFRAME XSTACK, 0, STACK
        ARGFRAME IOVERLAY, 0, STATIC
        ARGFRAME DOVERLAY, 0, STATIC
        FUNCALL SEND_1_1, Delay_1u
        LOCFRAME ISTACK, 2, STACK
        LOCFRAME PSTACK, 0, STACK
        LOCFRAME XSTACK, 0, STACK
        LOCFRAME IOVERLAY, 0, STATIC
        LOCFRAME DOVERLAY, 0, STATIC
        ARGFRAME ISTACK, 2, STACK
        ARGFRAME PSTACK, 0, STACK
        ARGFRAME XSTACK, 0, STACK
        ARGFRAME IOVERLAY, 0, STATIC
        ARGFRAME DOVERLAY, 0, STATIC
        PUSH    DPL
        CFI DPL0 Frame(CFA_SP, 4)
        CFI CFA_SP SP+-4
        PUSH    DPH
        CFI DPH0 Frame(CFA_SP, 5)
        CFI CFA_SP SP+-5
        ; Saved register size: 2
        ; Auto size: 0
//  265 	WriteSDA1();
        ; Setup parameters for call to function WriteSDA1
        LCALL   ??WriteSDA1?relay
//  266 	WriteSCL1();
        ; Setup parameters for call to function WriteSCL1
        LJMP    ?Subroutine0 & 0xFFFF
        CFI EndBlock cfiBlock60
//  267 	Delay_1u(50);
//  268 	WriteSCL0();
//  269 	Delay_1u(50);
//  270 }
//  271 
//  272 /*发送完一个字节后检验设备的应答信号*/

        RSEG BANKED_CODE:CODE:NOROOT(0)
//  273 char Check_Acknowledge_1(void)
Check_Acknowledge_1:
        CFI Block cfiBlock61 Using cfiCommon0
        CFI Function Check_Acknowledge_1
        CODE
//  274 {
        FUNCALL Check_Acknowledge_1, WriteSDA1
        LOCFRAME ISTACK, 2, STACK
        LOCFRAME PSTACK, 0, STACK
        LOCFRAME XSTACK, 0, STACK
        LOCFRAME IOVERLAY, 0, STATIC
        LOCFRAME DOVERLAY, 0, STATIC
        ARGFRAME ISTACK, 2, STACK
        ARGFRAME PSTACK, 0, STACK
        ARGFRAME XSTACK, 0, STACK
        ARGFRAME IOVERLAY, 0, STATIC
        ARGFRAME DOVERLAY, 0, STATIC
        FUNCALL Check_Acknowledge_1, WriteSCL1
        LOCFRAME ISTACK, 2, STACK
        LOCFRAME PSTACK, 0, STACK
        LOCFRAME XSTACK, 0, STACK
        LOCFRAME IOVERLAY, 0, STATIC
        LOCFRAME DOVERLAY, 0, STATIC
        ARGFRAME ISTACK, 2, STACK
        ARGFRAME PSTACK, 0, STACK
        ARGFRAME XSTACK, 0, STACK
        ARGFRAME IOVERLAY, 0, STATIC
        ARGFRAME DOVERLAY, 0, STATIC
        FUNCALL Check_Acknowledge_1, Delay_1u
        LOCFRAME ISTACK, 2, STACK
        LOCFRAME PSTACK, 0, STACK
        LOCFRAME XSTACK, 0, STACK
        LOCFRAME IOVERLAY, 0, STATIC
        LOCFRAME DOVERLAY, 0, STATIC
        ARGFRAME ISTACK, 2, STACK
        ARGFRAME PSTACK, 0, STACK
        ARGFRAME XSTACK, 0, STACK
        ARGFRAME IOVERLAY, 0, STATIC
        ARGFRAME DOVERLAY, 0, STATIC
        FUNCALL Check_Acknowledge_1, Delay_1u
        LOCFRAME ISTACK, 2, STACK
        LOCFRAME PSTACK, 0, STACK
        LOCFRAME XSTACK, 0, STACK
        LOCFRAME IOVERLAY, 0, STATIC
        LOCFRAME DOVERLAY, 0, STATIC
        ARGFRAME ISTACK, 2, STACK
        ARGFRAME PSTACK, 0, STACK
        ARGFRAME XSTACK, 0, STACK
        ARGFRAME IOVERLAY, 0, STATIC
        ARGFRAME DOVERLAY, 0, STATIC
        FUNCALL Check_Acknowledge_1, WriteSCL0
        LOCFRAME ISTACK, 2, STACK
        LOCFRAME PSTACK, 0, STACK
        LOCFRAME XSTACK, 0, STACK
        LOCFRAME IOVERLAY, 0, STATIC
        LOCFRAME DOVERLAY, 0, STATIC
        ARGFRAME ISTACK, 2, STACK
        ARGFRAME PSTACK, 0, STACK
        ARGFRAME XSTACK, 0, STACK
        ARGFRAME IOVERLAY, 0, STATIC
        ARGFRAME DOVERLAY, 0, STATIC
        FUNCALL Check_Acknowledge_1, Delay_1u
        LOCFRAME ISTACK, 2, STACK
        LOCFRAME PSTACK, 0, STACK
        LOCFRAME XSTACK, 0, STACK
        LOCFRAME IOVERLAY, 0, STATIC
        LOCFRAME DOVERLAY, 0, STATIC
        ARGFRAME ISTACK, 2, STACK
        ARGFRAME PSTACK, 0, STACK
        ARGFRAME XSTACK, 0, STACK
        ARGFRAME IOVERLAY, 0, STATIC
        ARGFRAME DOVERLAY, 0, STATIC
        PUSH    DPL
        CFI DPL0 Frame(CFA_SP, 4)
        CFI CFA_SP SP+-4
        PUSH    DPH
        CFI DPH0 Frame(CFA_SP, 5)
        CFI CFA_SP SP+-5
        ; Saved register size: 2
        ; Auto size: 0
//  275 	WriteSDA1();
        ; Setup parameters for call to function WriteSDA1
        LCALL   ??WriteSDA1?relay
//  276 	WriteSCL1();
        ; Setup parameters for call to function WriteSCL1
        LCALL   ??Subroutine13_0 & 0xFFFF
//  277 	Delay_1u(50);
//  278 	F0 = SDA;
??CrossCallReturnLabel_20:
        MOV     C,0x80.5
        MOV     0xd0.5,C
//  279 	Delay_1u(50);
        ; Setup parameters for call to function Delay_1u
        LCALL   ?Subroutine5 & 0xFFFF
//  280 	WriteSCL0();
//  281 	Delay_1u(50);
//  282 	if (F0 == 1)
??CrossCallReturnLabel_10:
        MOV     C,0xd0.5
        JNC     ??Check_Acknowledge_1_0
//  283 		return FALSE;
        MOV     R1,#0x0
        SJMP    ??Check_Acknowledge_1_1
//  284 	return TRUE;
??Check_Acknowledge_1_0:
        MOV     R1,#0x1
??Check_Acknowledge_1_1:
        LJMP    ??Subroutine11_0 & 0xFFFF
        CFI EndBlock cfiBlock61
        REQUIRE _A_PSW
        REQUIRE _A_P0
//  285 }

        RSEG BANKED_CODE:CODE:NOROOT(0)
?Subroutine5:
        CFI Block cfiCond62 Using cfiCommon0
        CFI NoFunction
        CFI Conditional ??CrossCallReturnLabel_9
        CFI DPL0 Frame(CFA_SP, 4)
        CFI DPH0 Frame(CFA_SP, 5)
        CFI CFA_SP SP+-5
        CFI Block cfiCond63 Using cfiCommon0
        CFI (cfiCond63) NoFunction
        CFI (cfiCond63) Conditional ??CrossCallReturnLabel_9
        CFI (cfiCond63) DPL0 Frame(CFA_SP, 4)
        CFI (cfiCond63) DPH0 Frame(CFA_SP, 5)
        CFI (cfiCond63) CFA_SP SP+-5
        CFI Block cfiCond64 Using cfiCommon0
        CFI (cfiCond64) NoFunction
        CFI (cfiCond64) Conditional ??CrossCallReturnLabel_9
        CFI (cfiCond64) DPL0 Frame(CFA_SP, 4)
        CFI (cfiCond64) DPH0 Frame(CFA_SP, 5)
        CFI (cfiCond64) CFA_SP SP+-5
        CFI Block cfiCond65 Using cfiCommon0
        CFI (cfiCond65) NoFunction
        CFI (cfiCond65) Conditional ??CrossCallReturnLabel_9
        CFI (cfiCond65) DPL0 Frame(CFA_SP, 4)
        CFI (cfiCond65) DPH0 Frame(CFA_SP, 5)
        CFI (cfiCond65) CFA_SP SP+-5
        CFI Block cfiCond66 Using cfiCommon0
        CFI (cfiCond66) NoFunction
        CFI (cfiCond66) Conditional ??CrossCallReturnLabel_9
        CFI (cfiCond66) DPL0 Frame(CFA_SP, 4)
        CFI (cfiCond66) DPH0 Frame(CFA_SP, 5)
        CFI (cfiCond66) CFA_SP SP+-5
        CFI Block cfiCond67 Using cfiCommon0
        CFI (cfiCond67) NoFunction
        CFI (cfiCond67) Conditional ??CrossCallReturnLabel_10
        CFI (cfiCond67) DPL0 Frame(CFA_SP, 4)
        CFI (cfiCond67) DPH0 Frame(CFA_SP, 5)
        CFI (cfiCond67) CFA_SP SP+-5
        CFI Block cfiPicker68 Using cfiCommon1
        CFI (cfiPicker68) NoFunction
        CFI (cfiPicker68) Picker
        MOV     R2,#0x32
        MOV     R3,#0x0
        LCALL   ??Delay_1u?relay
        ; Setup parameters for call to function WriteSCL0
        ; Setup parameters for call to function WriteSCL0
        ; Setup parameters for call to function WriteSCL0
        ; Setup parameters for call to function WriteSCL0
        ; Setup parameters for call to function WriteSCL0
        ; Setup parameters for call to function WriteSCL0
        LCALL   ??WriteSCL0?relay
        ; Setup parameters for call to function Delay_1u
        ; Setup parameters for call to function Delay_1u
        ; Setup parameters for call to function Delay_1u
        ; Setup parameters for call to function Delay_1u
        ; Setup parameters for call to function Delay_1u
        ; Setup parameters for call to function Delay_1u
        MOV     R2,#0x32
        MOV     R3,#0x0
        LCALL   ??Delay_1u?relay
        RET
        CFI EndBlock cfiCond62
        CFI EndBlock cfiCond63
        CFI EndBlock cfiCond64
        CFI EndBlock cfiCond65
        CFI EndBlock cfiCond66
        CFI EndBlock cfiCond67
        CFI EndBlock cfiPicker68
//  286 

        RSEG BANKED_CODE:CODE:NOROOT(0)
//  287 void Write_Acknowledge_1(void)
Write_Acknowledge_1:
        CFI Block cfiBlock69 Using cfiCommon0
        CFI Function Write_Acknowledge_1
        CODE
//  288 {
        FUNCALL Write_Acknowledge_1, WriteSDA0
        LOCFRAME ISTACK, 2, STACK
        LOCFRAME PSTACK, 0, STACK
        LOCFRAME XSTACK, 0, STACK
        LOCFRAME IOVERLAY, 0, STATIC
        LOCFRAME DOVERLAY, 0, STATIC
        ARGFRAME ISTACK, 2, STACK
        ARGFRAME PSTACK, 0, STACK
        ARGFRAME XSTACK, 0, STACK
        ARGFRAME IOVERLAY, 0, STATIC
        ARGFRAME DOVERLAY, 0, STATIC
        FUNCALL Write_Acknowledge_1, Delay_1u
        LOCFRAME ISTACK, 2, STACK
        LOCFRAME PSTACK, 0, STACK
        LOCFRAME XSTACK, 0, STACK
        LOCFRAME IOVERLAY, 0, STATIC
        LOCFRAME DOVERLAY, 0, STATIC
        ARGFRAME ISTACK, 2, STACK
        ARGFRAME PSTACK, 0, STACK
        ARGFRAME XSTACK, 0, STACK
        ARGFRAME IOVERLAY, 0, STATIC
        ARGFRAME DOVERLAY, 0, STATIC
        FUNCALL Write_Acknowledge_1, WriteSCL1
        LOCFRAME ISTACK, 2, STACK
        LOCFRAME PSTACK, 0, STACK
        LOCFRAME XSTACK, 0, STACK
        LOCFRAME IOVERLAY, 0, STATIC
        LOCFRAME DOVERLAY, 0, STATIC
        ARGFRAME ISTACK, 2, STACK
        ARGFRAME PSTACK, 0, STACK
        ARGFRAME XSTACK, 0, STACK
        ARGFRAME IOVERLAY, 0, STATIC
        ARGFRAME DOVERLAY, 0, STATIC
        FUNCALL Write_Acknowledge_1, Delay_1u
        LOCFRAME ISTACK, 2, STACK
        LOCFRAME PSTACK, 0, STACK
        LOCFRAME XSTACK, 0, STACK
        LOCFRAME IOVERLAY, 0, STATIC
        LOCFRAME DOVERLAY, 0, STATIC
        ARGFRAME ISTACK, 2, STACK
        ARGFRAME PSTACK, 0, STACK
        ARGFRAME XSTACK, 0, STACK
        ARGFRAME IOVERLAY, 0, STATIC
        ARGFRAME DOVERLAY, 0, STATIC
        FUNCALL Write_Acknowledge_1, WriteSCL0
        LOCFRAME ISTACK, 2, STACK
        LOCFRAME PSTACK, 0, STACK
        LOCFRAME XSTACK, 0, STACK
        LOCFRAME IOVERLAY, 0, STATIC
        LOCFRAME DOVERLAY, 0, STATIC
        ARGFRAME ISTACK, 2, STACK
        ARGFRAME PSTACK, 0, STACK
        ARGFRAME XSTACK, 0, STACK
        ARGFRAME IOVERLAY, 0, STATIC
        ARGFRAME DOVERLAY, 0, STATIC
        FUNCALL Write_Acknowledge_1, Delay_1u
        LOCFRAME ISTACK, 2, STACK
        LOCFRAME PSTACK, 0, STACK
        LOCFRAME XSTACK, 0, STACK
        LOCFRAME IOVERLAY, 0, STATIC
        LOCFRAME DOVERLAY, 0, STATIC
        ARGFRAME ISTACK, 2, STACK
        ARGFRAME PSTACK, 0, STACK
        ARGFRAME XSTACK, 0, STACK
        ARGFRAME IOVERLAY, 0, STATIC
        ARGFRAME DOVERLAY, 0, STATIC
        PUSH    DPL
        CFI DPL0 Frame(CFA_SP, 4)
        CFI CFA_SP SP+-4
        PUSH    DPH
        CFI DPH0 Frame(CFA_SP, 5)
        CFI CFA_SP SP+-5
        ; Saved register size: 2
        ; Auto size: 0
//  289 	WriteSDA0();
        ; Setup parameters for call to function WriteSDA0
        LCALL   ??WriteSDA0?relay
//  290 	Delay_1u(50);
        ; Setup parameters for call to function Delay_1u
        MOV     R2,#0x32
        MOV     R3,#0x0
        LCALL   ??Delay_1u?relay
//  291 	WriteSCL1();
        ; Setup parameters for call to function WriteSCL1
        LJMP    ?Subroutine0 & 0xFFFF
        CFI EndBlock cfiBlock69
//  292 	Delay_1u(50);
//  293 	WriteSCL0();
//  294 	Delay_1u(50);
//  295 }
//  296 
//  297 /*向I2C总线写一个字节*/

        RSEG BANKED_CODE:CODE:NOROOT(0)
//  298 void WriteI2CByte_1(char b)
WriteI2CByte_1:
        CFI Block cfiBlock70 Using cfiCommon0
        CFI Function WriteI2CByte_1
        CODE
//  299 {
        FUNCALL WriteI2CByte_1, SEND_1_1
        LOCFRAME ISTACK, 0, STACK
        LOCFRAME PSTACK, 0, STACK
        LOCFRAME XSTACK, 10, STACK
        LOCFRAME IOVERLAY, 0, STATIC
        LOCFRAME DOVERLAY, 0, STATIC
        ARGFRAME ISTACK, 0, STACK
        ARGFRAME PSTACK, 0, STACK
        ARGFRAME XSTACK, 10, STACK
        ARGFRAME IOVERLAY, 0, STATIC
        ARGFRAME DOVERLAY, 0, STATIC
        FUNCALL WriteI2CByte_1, SEND_0_1
        LOCFRAME ISTACK, 0, STACK
        LOCFRAME PSTACK, 0, STACK
        LOCFRAME XSTACK, 10, STACK
        LOCFRAME IOVERLAY, 0, STATIC
        LOCFRAME DOVERLAY, 0, STATIC
        ARGFRAME ISTACK, 0, STACK
        ARGFRAME PSTACK, 0, STACK
        ARGFRAME XSTACK, 10, STACK
        ARGFRAME IOVERLAY, 0, STATIC
        ARGFRAME DOVERLAY, 0, STATIC
        MOV     A,#-0xa
        LCALL   ?BANKED_ENTER_XDATA
        CFI DPH0 load(1, XDATA, add(CFA_XSP16, literal(-1)))
        CFI DPL0 load(1, XDATA, add(CFA_XSP16, literal(-2)))
        CFI ?BRET_EXT load(1, XDATA, add(CFA_XSP16, literal(-3)))
        CFI ?RET_HIGH load(1, XDATA, add(CFA_XSP16, literal(-4)))
        CFI ?RET_LOW load(1, XDATA, add(CFA_XSP16, literal(-5)))
        CFI R7 load(1, XDATA, add(CFA_XSP16, literal(-6)))
        CFI V1 load(1, XDATA, add(CFA_XSP16, literal(-7)))
        CFI V0 load(1, XDATA, add(CFA_XSP16, literal(-8)))
        CFI VB load(1, XDATA, add(CFA_XSP16, literal(-9)))
        CFI R6 load(1, XDATA, add(CFA_XSP16, literal(-10)))
        CFI CFA_SP SP+0
        CFI CFA_XSP16 add(XSP16, 10)
        ; Saved register size: 10
        ; Auto size: 0
        MOV     A,R1
        MOV     R7,A
//  300 	char i;
//  301 	for (i = 0; i < 8; i++)
        MOV     R6,#0x0
//  302 	{
//  303 		if ((b << i) & 0x80)
??WriteI2CByte_1_0:
        MOV     ?V0 + 0,R7
        MOV     ?V0 + 1,#0x0
        MOV     A,R6
        MOV     R0,#?V0 + 0
        LCALL   ?S_SHL
        MOV     A,?V0 + 0
        ANL     A,#0x80
        JZ      ??WriteI2CByte_1_1
//  304 		{
//  305 			SEND_1_1();
        ; Setup parameters for call to function SEND_1_1
        LCALL   ??SEND_1_1?relay
        SJMP    ??WriteI2CByte_1_2
//  306 		}
//  307 		else
//  308 		{
//  309 			SEND_0_1();
??WriteI2CByte_1_1:
        ; Setup parameters for call to function SEND_0_1
        LCALL   ??SEND_0_1?relay
//  310 		}
//  311 	}
??WriteI2CByte_1_2:
        INC     R6
        MOV     A,R6
        CLR     C
        SUBB    A,#0x8
        JC      ??WriteI2CByte_1_0
//  312 }
        MOV     R7,#0x2
        LJMP    ?BANKED_LEAVE_XDATA
        CFI EndBlock cfiBlock70
//  313 
//  314 /*从I2C总线读一个字节*/

        RSEG BANKED_CODE:CODE:NOROOT(0)
//  315 char ReadI2CByte_1(void)
ReadI2CByte_1:
        CFI Block cfiBlock71 Using cfiCommon0
        CFI Function ReadI2CByte_1
        CODE
//  316 {
        FUNCALL ReadI2CByte_1, WriteSDA1
        LOCFRAME ISTACK, 0, STACK
        LOCFRAME PSTACK, 0, STACK
        LOCFRAME XSTACK, 9, STACK
        LOCFRAME IOVERLAY, 0, STATIC
        LOCFRAME DOVERLAY, 0, STATIC
        ARGFRAME ISTACK, 0, STACK
        ARGFRAME PSTACK, 0, STACK
        ARGFRAME XSTACK, 9, STACK
        ARGFRAME IOVERLAY, 0, STATIC
        ARGFRAME DOVERLAY, 0, STATIC
        FUNCALL ReadI2CByte_1, WriteSCL0
        LOCFRAME ISTACK, 0, STACK
        LOCFRAME PSTACK, 0, STACK
        LOCFRAME XSTACK, 9, STACK
        LOCFRAME IOVERLAY, 0, STATIC
        LOCFRAME DOVERLAY, 0, STATIC
        ARGFRAME ISTACK, 0, STACK
        ARGFRAME PSTACK, 0, STACK
        ARGFRAME XSTACK, 9, STACK
        ARGFRAME IOVERLAY, 0, STATIC
        ARGFRAME DOVERLAY, 0, STATIC
        FUNCALL ReadI2CByte_1, Delay_1u
        LOCFRAME ISTACK, 0, STACK
        LOCFRAME PSTACK, 0, STACK
        LOCFRAME XSTACK, 9, STACK
        LOCFRAME IOVERLAY, 0, STATIC
        LOCFRAME DOVERLAY, 0, STATIC
        ARGFRAME ISTACK, 0, STACK
        ARGFRAME PSTACK, 0, STACK
        ARGFRAME XSTACK, 9, STACK
        ARGFRAME IOVERLAY, 0, STATIC
        ARGFRAME DOVERLAY, 0, STATIC
        FUNCALL ReadI2CByte_1, WriteSCL1
        LOCFRAME ISTACK, 0, STACK
        LOCFRAME PSTACK, 0, STACK
        LOCFRAME XSTACK, 9, STACK
        LOCFRAME IOVERLAY, 0, STATIC
        LOCFRAME DOVERLAY, 0, STATIC
        ARGFRAME ISTACK, 0, STACK
        ARGFRAME PSTACK, 0, STACK
        ARGFRAME XSTACK, 9, STACK
        ARGFRAME IOVERLAY, 0, STATIC
        ARGFRAME DOVERLAY, 0, STATIC
        FUNCALL ReadI2CByte_1, Delay_1u
        LOCFRAME ISTACK, 0, STACK
        LOCFRAME PSTACK, 0, STACK
        LOCFRAME XSTACK, 9, STACK
        LOCFRAME IOVERLAY, 0, STATIC
        LOCFRAME DOVERLAY, 0, STATIC
        ARGFRAME ISTACK, 0, STACK
        ARGFRAME PSTACK, 0, STACK
        ARGFRAME XSTACK, 9, STACK
        ARGFRAME IOVERLAY, 0, STATIC
        ARGFRAME DOVERLAY, 0, STATIC
        FUNCALL ReadI2CByte_1, WriteSCL0
        LOCFRAME ISTACK, 0, STACK
        LOCFRAME PSTACK, 0, STACK
        LOCFRAME XSTACK, 9, STACK
        LOCFRAME IOVERLAY, 0, STATIC
        LOCFRAME DOVERLAY, 0, STATIC
        ARGFRAME ISTACK, 0, STACK
        ARGFRAME PSTACK, 0, STACK
        ARGFRAME XSTACK, 9, STACK
        ARGFRAME IOVERLAY, 0, STATIC
        ARGFRAME DOVERLAY, 0, STATIC
        MOV     A,#-0x9
        LCALL   ?BANKED_ENTER_XDATA
        CFI DPH0 load(1, XDATA, add(CFA_XSP16, literal(-1)))
        CFI DPL0 load(1, XDATA, add(CFA_XSP16, literal(-2)))
        CFI ?BRET_EXT load(1, XDATA, add(CFA_XSP16, literal(-3)))
        CFI ?RET_HIGH load(1, XDATA, add(CFA_XSP16, literal(-4)))
        CFI ?RET_LOW load(1, XDATA, add(CFA_XSP16, literal(-5)))
        CFI R7 load(1, XDATA, add(CFA_XSP16, literal(-6)))
        CFI V0 load(1, XDATA, add(CFA_XSP16, literal(-7)))
        CFI VB load(1, XDATA, add(CFA_XSP16, literal(-8)))
        CFI R6 load(1, XDATA, add(CFA_XSP16, literal(-9)))
        CFI CFA_SP SP+0
        CFI CFA_XSP16 add(XSP16, 9)
        ; Saved register size: 9
        ; Auto size: 0
//  317 	char b = 0, i;
        MOV     R6,#0x0
//  318 	WriteSDA1();
        ; Setup parameters for call to function WriteSDA1
        LCALL   ??WriteSDA1?relay
//  319 
//  320 	for (i = 0; i < 8; i++)
        MOV     R7,#0x8
//  321 	{
//  322 		WriteSCL0();
??ReadI2CByte_1_0:
        ; Setup parameters for call to function WriteSCL0
        LCALL   ??WriteSCL0?relay
//  323 		Delay_1u(50);
        ; Setup parameters for call to function Delay_1u
        LCALL   ?Subroutine4 & 0xFFFF
//  324 		WriteSCL1();
//  325 		Delay_1u(50);
//  326 
//  327 		ReadSDA();
??CrossCallReturnLabel_18:
        ANL     0xfd,#0xdf
//  328 		F0 = SDA; //寄存器中的一位,用于存储SDA中的一位数据
        MOV     C,0x80.5
        MOV     0xd0.5,C
//  329 
//  330 		if (F0 == 1)
        MOV     C,0xd0.5
        MOV     A,R6
        JNC     ??ReadI2CByte_1_1
//  331 		{
//  332 			b = b << 1;
//  333 			b = b | 0x01;
        CLR     C
        RLC     A
        ORL     A,#0x1
        SJMP    ??ReadI2CByte_1_2
//  334 		}
//  335 		else
//  336 			b = b << 1;
??ReadI2CByte_1_1:
        CLR     C
        RLC     A
??ReadI2CByte_1_2:
        MOV     R6,A
//  337 	}
        DEC     R7
        MOV     A,R7
        JNZ     ??ReadI2CByte_1_0
//  338 	WriteSCL0();
        ; Setup parameters for call to function WriteSCL0
        LCALL   ??WriteSCL0?relay
//  339 	return b;
        MOV     A,R6
        MOV     R1,A
        LJMP    ?Subroutine1 & 0xFFFF
        CFI EndBlock cfiBlock71
        REQUIRE _A_PSW
        REQUIRE _A_P0
        REQUIRE P0DIR
//  340 }

        RSEG BANK_RELAYS:CODE:REORDER:NOROOT(0)
??Delay_1u?relay:
        LCALL   ?BDISPATCH
        DATA
        DC24    Delay_1u

        RSEG BANK_RELAYS:CODE:REORDER:NOROOT(0)
??Delay_us?relay:
        LCALL   ?BDISPATCH
        DATA
        DC24    Delay_us

        RSEG BANK_RELAYS:CODE:REORDER:NOROOT(0)
??Delay_10us?relay:
        LCALL   ?BDISPATCH
        DATA
        DC24    Delay_10us

        RSEG BANK_RELAYS:CODE:REORDER:NOROOT(0)
??Delay_ms?relay:
        LCALL   ?BDISPATCH
        DATA
        DC24    Delay_ms

        RSEG BANK_RELAYS:CODE:REORDER:NOROOT(0)
??SGP30_Init?relay:
        LCALL   ?BDISPATCH
        DATA
        DC24    SGP30_Init

        RSEG BANK_RELAYS:CODE:REORDER:NOROOT(0)
??SGP30_Start_Measure?relay:
        LCALL   ?BDISPATCH
        DATA
        DC24    SGP30_Start_Measure

        RSEG BANK_RELAYS:CODE:REORDER:NOROOT(0)
??Read_Air_Quality?relay:
        LCALL   ?BDISPATCH
        DATA
        DC24    Read_Air_Quality

        RSEG BANK_RELAYS:CODE:REORDER:NOROOT(0)
??WriteSDA1?relay:
        LCALL   ?BDISPATCH
        DATA
        DC24    WriteSDA1

        RSEG BANK_RELAYS:CODE:REORDER:NOROOT(0)
??WriteSDA0?relay:
        LCALL   ?BDISPATCH
        DATA
        DC24    WriteSDA0

        RSEG BANK_RELAYS:CODE:REORDER:NOROOT(0)
??WriteSCL1?relay:
        LCALL   ?BDISPATCH
        DATA
        DC24    WriteSCL1

        RSEG BANK_RELAYS:CODE:REORDER:NOROOT(0)
??WriteSCL0?relay:
        LCALL   ?BDISPATCH
        DATA
        DC24    WriteSCL0

        RSEG BANK_RELAYS:CODE:REORDER:NOROOT(0)
??ReadSDA?relay:
        LCALL   ?BDISPATCH
        DATA
        DC24    ReadSDA

        RSEG BANK_RELAYS:CODE:REORDER:NOROOT(0)
??I2C_Start_1?relay:
        LCALL   ?BDISPATCH
        DATA
        DC24    I2C_Start_1

        RSEG BANK_RELAYS:CODE:REORDER:NOROOT(0)
??I2C_Stop_1?relay:
        LCALL   ?BDISPATCH
        DATA
        DC24    I2C_Stop_1

        RSEG BANK_RELAYS:CODE:REORDER:NOROOT(0)
??SEND_0_1?relay:
        LCALL   ?BDISPATCH
        DATA
        DC24    SEND_0_1

        RSEG BANK_RELAYS:CODE:REORDER:NOROOT(0)
??SEND_1_1?relay:
        LCALL   ?BDISPATCH
        DATA
        DC24    SEND_1_1

        RSEG BANK_RELAYS:CODE:REORDER:NOROOT(0)
??Check_Acknowledge_1?relay:
        LCALL   ?BDISPATCH
        DATA
        DC24    Check_Acknowledge_1

        RSEG BANK_RELAYS:CODE:REORDER:NOROOT(0)
??Write_Acknowledge_1?relay:
        LCALL   ?BDISPATCH
        DATA
        DC24    Write_Acknowledge_1

        RSEG BANK_RELAYS:CODE:REORDER:NOROOT(0)
??WriteI2CByte_1?relay:
        LCALL   ?BDISPATCH
        DATA
        DC24    WriteI2CByte_1

        RSEG BANK_RELAYS:CODE:REORDER:NOROOT(0)
??ReadI2CByte_1?relay:
        LCALL   ?BDISPATCH
        DATA
        DC24    ReadI2CByte_1

        END
// 
// 600 bytes in segment BANKED_CODE
// 120 bytes in segment BANK_RELAYS
//   3 bytes in segment SFR_AN
// 
// 720 bytes of CODE memory
//   0 bytes of DATA memory (+ 3 bytes shared)
//
//Errors: none
//Warnings: none
